Archive member included to satisfy reference by file (symbol)

../../../simplelink/gcc/lib/os/Release/libsimplelink.a(device.o)
                              obj//Release/serial_wifi.o (sl_Start)
../../../simplelink/gcc/lib/os/Release/libsimplelink.a(driver.o)
                              ../../../simplelink/gcc/lib/os/Release/libsimplelink.a(device.o) (_SlDrvDriverCBDeinit)
../../../simplelink/gcc/lib/os/Release/libsimplelink.a(netapp.o)
                              obj//Release/serial_wifi.o (sl_NetAppMDNSRegisterService)
../../../simplelink/gcc/lib/os/Release/libsimplelink.a(netcfg.o)
                              obj//Release/serial_wifi.o (sl_NetCfgSet)
../../../simplelink/gcc/lib/os/Release/libsimplelink.a(fs.o)
                              obj//Release/serial_wifi.o (_sl_GetCreateFsMode)
../../../simplelink/gcc/lib/os/Release/libsimplelink.a(socket.o)
                              obj//Release/serial_wifi.o (sl_Socket)
../../../simplelink/gcc/lib/os/Release/libsimplelink.a(wlan.o)
                              obj//Release/serial_wifi.o (sl_WlanConnect)
../../../simplelink/gcc/lib/os/Release/libsimplelink.a(cc_pal.o)
                              ../../../simplelink/gcc/lib/os/Release/libsimplelink.a(device.o) (spi_Open)
../../../oslib/gcc/free_rtos/Release/free_rtos.a(osi_freertos.o)
                              ../../../simplelink/gcc/lib/os/Release/libsimplelink.a(cc_pal.o) (osi_InterruptRegister)
../../../oslib/gcc/free_rtos/Release/free_rtos.a(queue.o)
                              ../../../oslib/gcc/free_rtos/Release/free_rtos.a(osi_freertos.o) (xQueueGenericCreate)
../../../oslib/gcc/free_rtos/Release/free_rtos.a(tasks.o)
                              ../../../oslib/gcc/free_rtos/Release/free_rtos.a(osi_freertos.o) (xTaskCreate)
../../../oslib/gcc/free_rtos/Release/free_rtos.a(port.o)
                              ../../../oslib/gcc/free_rtos/Release/free_rtos.a(tasks.o) (pxPortInitialiseStack)
../../../oslib/gcc/free_rtos/Release/free_rtos.a(heap_3.o)
                              ../../../oslib/gcc/free_rtos/Release/free_rtos.a(osi_freertos.o) (pvPortMalloc)
../../../oslib/gcc/free_rtos/Release/free_rtos.a(list.o)
                              ../../../oslib/gcc/free_rtos/Release/free_rtos.a(queue.o) (vListInitialise)
../../../driverlib/gcc/lib/Release/libdriver.a(interrupt.o)
                              obj//Release/main.o (IntEnable)
../../../driverlib/gcc/lib/Release/libdriver.a(prcm.o)
                              obj//Release/pinmux.o (PRCMPeripheralClkEnable)
../../../driverlib/gcc/lib/Release/libdriver.a(spi.o)
                              ../../../simplelink/gcc/lib/os/Release/libsimplelink.a(cc_pal.o) (SPIConfigSetExpClk)
../../../driverlib/gcc/lib/Release/libdriver.a(timer.o)
                              ../../../simplelink/gcc/lib/os/Release/libsimplelink.a(cc_pal.o) (TimerConfigure)
../../../driverlib/gcc/lib/Release/libdriver.a(utils.o)
                              ../../../simplelink/gcc/lib/os/Release/libsimplelink.a(cc_pal.o) (UtilsDelay)
../../../driverlib/gcc/lib/Release/libdriver.a(cpu.o)
                              ../../../driverlib/gcc/lib/Release/libdriver.a(interrupt.o) (CPUcpsid)
../../../driverlib/gcc/lib/Release/libdriver.a(flash.o)
                              ../../../driverlib/gcc/lib/Release/libdriver.a(prcm.o) (FlashDisable)
/Applications/ARM/bin/../lib/gcc/arm-none-eabi/10.3.1/../../../../arm-none-eabi/lib/thumb/v7e-m/nofp/libc_nano.a(lib_a-malloc.o)
                              obj//Release/uart_if.o (malloc)
/Applications/ARM/bin/../lib/gcc/arm-none-eabi/10.3.1/../../../../arm-none-eabi/lib/thumb/v7e-m/nofp/libc_nano.a(lib_a-memcpy-stub.o)
                              obj//Release/network_if.o (memcpy)
/Applications/ARM/bin/../lib/gcc/arm-none-eabi/10.3.1/../../../../arm-none-eabi/lib/thumb/v7e-m/nofp/libc_nano.a(lib_a-memmove.o)
                              obj//Release/uart_if.o (memmove)
/Applications/ARM/bin/../lib/gcc/arm-none-eabi/10.3.1/../../../../arm-none-eabi/lib/thumb/v7e-m/nofp/libc_nano.a(lib_a-memset.o)
                              obj//Release/serial_wifi.o (memset)
/Applications/ARM/bin/../lib/gcc/arm-none-eabi/10.3.1/../../../../arm-none-eabi/lib/thumb/v7e-m/nofp/libc_nano.a(lib_a-nano-freer.o)
                              /Applications/ARM/bin/../lib/gcc/arm-none-eabi/10.3.1/../../../../arm-none-eabi/lib/thumb/v7e-m/nofp/libc_nano.a(lib_a-malloc.o) (_free_r)
/Applications/ARM/bin/../lib/gcc/arm-none-eabi/10.3.1/../../../../arm-none-eabi/lib/thumb/v7e-m/nofp/libc_nano.a(lib_a-nano-mallocr.o)
                              /Applications/ARM/bin/../lib/gcc/arm-none-eabi/10.3.1/../../../../arm-none-eabi/lib/thumb/v7e-m/nofp/libc_nano.a(lib_a-malloc.o) (_malloc_r)
/Applications/ARM/bin/../lib/gcc/arm-none-eabi/10.3.1/../../../../arm-none-eabi/lib/thumb/v7e-m/nofp/libc_nano.a(lib_a-realloc.o)
                              obj//Release/uart_if.o (realloc)
/Applications/ARM/bin/../lib/gcc/arm-none-eabi/10.3.1/../../../../arm-none-eabi/lib/thumb/v7e-m/nofp/libc_nano.a(lib_a-sbrkr.o)
                              /Applications/ARM/bin/../lib/gcc/arm-none-eabi/10.3.1/../../../../arm-none-eabi/lib/thumb/v7e-m/nofp/libc_nano.a(lib_a-nano-mallocr.o) (_sbrk_r)
/Applications/ARM/bin/../lib/gcc/arm-none-eabi/10.3.1/../../../../arm-none-eabi/lib/thumb/v7e-m/nofp/libc_nano.a(lib_a-strchr.o)
                              obj//Release/serial_wifi.o (strchr)
/Applications/ARM/bin/../lib/gcc/arm-none-eabi/10.3.1/../../../../arm-none-eabi/lib/thumb/v7e-m/nofp/libc_nano.a(lib_a-strcmp.o)
                              obj//Release/serial_wifi.o (strcmp)
/Applications/ARM/bin/../lib/gcc/arm-none-eabi/10.3.1/../../../../arm-none-eabi/lib/thumb/v7e-m/nofp/libc_nano.a(lib_a-strcpy.o)
                              obj//Release/serial_wifi.o (strcpy)
/Applications/ARM/bin/../lib/gcc/arm-none-eabi/10.3.1/../../../../arm-none-eabi/lib/thumb/v7e-m/nofp/libc_nano.a(lib_a-strlen.o)
                              obj//Release/conversions.o (strlen)
/Applications/ARM/bin/../lib/gcc/arm-none-eabi/10.3.1/../../../../arm-none-eabi/lib/thumb/v7e-m/nofp/libc_nano.a(lib_a-strncpy.o)
                              obj//Release/conversions.o (strncpy)
/Applications/ARM/bin/../lib/gcc/arm-none-eabi/10.3.1/../../../../arm-none-eabi/lib/thumb/v7e-m/nofp/libc_nano.a(lib_a-strstr.o)
                              obj//Release/serial_wifi.o (strstr)
/Applications/ARM/bin/../lib/gcc/arm-none-eabi/10.3.1/../../../../arm-none-eabi/lib/thumb/v7e-m/nofp/libc_nano.a(lib_a-strtok.o)
                              obj//Release/serial_wifi.o (strtok)
/Applications/ARM/bin/../lib/gcc/arm-none-eabi/10.3.1/../../../../arm-none-eabi/lib/thumb/v7e-m/nofp/libc_nano.a(lib_a-strtok_r.o)
                              /Applications/ARM/bin/../lib/gcc/arm-none-eabi/10.3.1/../../../../arm-none-eabi/lib/thumb/v7e-m/nofp/libc_nano.a(lib_a-strtok.o) (__strtok_r)
/Applications/ARM/bin/../lib/gcc/arm-none-eabi/10.3.1/../../../../arm-none-eabi/lib/thumb/v7e-m/nofp/libc_nano.a(lib_a-strtol.o)
                              obj//Release/conversions.o (strtol)
/Applications/ARM/bin/../lib/gcc/arm-none-eabi/10.3.1/../../../../arm-none-eabi/lib/thumb/v7e-m/nofp/libc_nano.a(lib_a-vsnprintf.o)
                              obj//Release/uart_if.o (vsnprintf)
/Applications/ARM/bin/../lib/gcc/arm-none-eabi/10.3.1/../../../../arm-none-eabi/lib/thumb/v7e-m/nofp/libc_nano.a(lib_a-assert.o)
                              /Applications/ARM/bin/../lib/gcc/arm-none-eabi/10.3.1/../../../../arm-none-eabi/lib/thumb/v7e-m/nofp/libc_nano.a(lib_a-strtok.o) (__assert_func)
/Applications/ARM/bin/../lib/gcc/arm-none-eabi/10.3.1/../../../../arm-none-eabi/lib/thumb/v7e-m/nofp/libc_nano.a(lib_a-ctype_.o)
                              /Applications/ARM/bin/../lib/gcc/arm-none-eabi/10.3.1/../../../../arm-none-eabi/lib/thumb/v7e-m/nofp/libc_nano.a(lib_a-strtol.o) (_ctype_)
/Applications/ARM/bin/../lib/gcc/arm-none-eabi/10.3.1/../../../../arm-none-eabi/lib/thumb/v7e-m/nofp/libc_nano.a(lib_a-errno.o)
                              /Applications/ARM/bin/../lib/gcc/arm-none-eabi/10.3.1/../../../../arm-none-eabi/lib/thumb/v7e-m/nofp/libc_nano.a(lib_a-strtol.o) (__errno)
/Applications/ARM/bin/../lib/gcc/arm-none-eabi/10.3.1/../../../../arm-none-eabi/lib/thumb/v7e-m/nofp/libc_nano.a(lib_a-fprintf.o)
                              /Applications/ARM/bin/../lib/gcc/arm-none-eabi/10.3.1/../../../../arm-none-eabi/lib/thumb/v7e-m/nofp/libc_nano.a(lib_a-assert.o) (fiprintf)
/Applications/ARM/bin/../lib/gcc/arm-none-eabi/10.3.1/../../../../arm-none-eabi/lib/thumb/v7e-m/nofp/libc_nano.a(lib_a-impure.o)
                              /Applications/ARM/bin/../lib/gcc/arm-none-eabi/10.3.1/../../../../arm-none-eabi/lib/thumb/v7e-m/nofp/libc_nano.a(lib_a-malloc.o) (_impure_ptr)
/Applications/ARM/bin/../lib/gcc/arm-none-eabi/10.3.1/../../../../arm-none-eabi/lib/thumb/v7e-m/nofp/libc_nano.a(lib_a-mlock.o)
                              /Applications/ARM/bin/../lib/gcc/arm-none-eabi/10.3.1/../../../../arm-none-eabi/lib/thumb/v7e-m/nofp/libc_nano.a(lib_a-nano-freer.o) (__malloc_lock)
/Applications/ARM/bin/../lib/gcc/arm-none-eabi/10.3.1/../../../../arm-none-eabi/lib/thumb/v7e-m/nofp/libc_nano.a(lib_a-nano-reallocr.o)
                              /Applications/ARM/bin/../lib/gcc/arm-none-eabi/10.3.1/../../../../arm-none-eabi/lib/thumb/v7e-m/nofp/libc_nano.a(lib_a-realloc.o) (_realloc_r)
/Applications/ARM/bin/../lib/gcc/arm-none-eabi/10.3.1/../../../../arm-none-eabi/lib/thumb/v7e-m/nofp/libc_nano.a(lib_a-nano-svfprintf.o)
                              /Applications/ARM/bin/../lib/gcc/arm-none-eabi/10.3.1/../../../../arm-none-eabi/lib/thumb/v7e-m/nofp/libc_nano.a(lib_a-vsnprintf.o) (_svfprintf_r)
/Applications/ARM/bin/../lib/gcc/arm-none-eabi/10.3.1/../../../../arm-none-eabi/lib/thumb/v7e-m/nofp/libc_nano.a(lib_a-nano-vfprintf.o)
                              /Applications/ARM/bin/../lib/gcc/arm-none-eabi/10.3.1/../../../../arm-none-eabi/lib/thumb/v7e-m/nofp/libc_nano.a(lib_a-fprintf.o) (_vfprintf_r)
/Applications/ARM/bin/../lib/gcc/arm-none-eabi/10.3.1/../../../../arm-none-eabi/lib/thumb/v7e-m/nofp/libc_nano.a(lib_a-nano-vfprintf_i.o)
                              /Applications/ARM/bin/../lib/gcc/arm-none-eabi/10.3.1/../../../../arm-none-eabi/lib/thumb/v7e-m/nofp/libc_nano.a(lib_a-nano-svfprintf.o) (_printf_i)
/Applications/ARM/bin/../lib/gcc/arm-none-eabi/10.3.1/../../../../arm-none-eabi/lib/thumb/v7e-m/nofp/libc_nano.a(lib_a-reent.o)
                              /Applications/ARM/bin/../lib/gcc/arm-none-eabi/10.3.1/../../../../arm-none-eabi/lib/thumb/v7e-m/nofp/libc_nano.a(lib_a-sbrkr.o) (errno)
/Applications/ARM/bin/../lib/gcc/arm-none-eabi/10.3.1/../../../../arm-none-eabi/lib/thumb/v7e-m/nofp/libc_nano.a(lib_a-wbuf.o)
                              /Applications/ARM/bin/../lib/gcc/arm-none-eabi/10.3.1/../../../../arm-none-eabi/lib/thumb/v7e-m/nofp/libc_nano.a(lib_a-nano-vfprintf.o) (__swbuf_r)
/Applications/ARM/bin/../lib/gcc/arm-none-eabi/10.3.1/../../../../arm-none-eabi/lib/thumb/v7e-m/nofp/libc_nano.a(lib_a-wsetup.o)
                              /Applications/ARM/bin/../lib/gcc/arm-none-eabi/10.3.1/../../../../arm-none-eabi/lib/thumb/v7e-m/nofp/libc_nano.a(lib_a-nano-vfprintf.o) (__swsetup_r)
/Applications/ARM/bin/../lib/gcc/arm-none-eabi/10.3.1/../../../../arm-none-eabi/lib/thumb/v7e-m/nofp/libc_nano.a(lib_a-abort.o)
                              /Applications/ARM/bin/../lib/gcc/arm-none-eabi/10.3.1/../../../../arm-none-eabi/lib/thumb/v7e-m/nofp/libc_nano.a(lib_a-assert.o) (abort)
/Applications/ARM/bin/../lib/gcc/arm-none-eabi/10.3.1/../../../../arm-none-eabi/lib/thumb/v7e-m/nofp/libc_nano.a(lib_a-fflush.o)
                              /Applications/ARM/bin/../lib/gcc/arm-none-eabi/10.3.1/../../../../arm-none-eabi/lib/thumb/v7e-m/nofp/libc_nano.a(lib_a-wbuf.o) (_fflush_r)
/Applications/ARM/bin/../lib/gcc/arm-none-eabi/10.3.1/../../../../arm-none-eabi/lib/thumb/v7e-m/nofp/libc_nano.a(lib_a-findfp.o)
                              /Applications/ARM/bin/../lib/gcc/arm-none-eabi/10.3.1/../../../../arm-none-eabi/lib/thumb/v7e-m/nofp/libc_nano.a(lib_a-nano-vfprintf.o) (__sinit)
/Applications/ARM/bin/../lib/gcc/arm-none-eabi/10.3.1/../../../../arm-none-eabi/lib/thumb/v7e-m/nofp/libc_nano.a(lib_a-fvwrite.o)
                              /Applications/ARM/bin/../lib/gcc/arm-none-eabi/10.3.1/../../../../arm-none-eabi/lib/thumb/v7e-m/nofp/libc_nano.a(lib_a-nano-vfprintf.o) (__sfvwrite_r)
/Applications/ARM/bin/../lib/gcc/arm-none-eabi/10.3.1/../../../../arm-none-eabi/lib/thumb/v7e-m/nofp/libc_nano.a(lib_a-fwalk.o)
                              /Applications/ARM/bin/../lib/gcc/arm-none-eabi/10.3.1/../../../../arm-none-eabi/lib/thumb/v7e-m/nofp/libc_nano.a(lib_a-findfp.o) (_fwalk)
/Applications/ARM/bin/../lib/gcc/arm-none-eabi/10.3.1/../../../../arm-none-eabi/lib/thumb/v7e-m/nofp/libc_nano.a(lib_a-lock.o)
                              /Applications/ARM/bin/../lib/gcc/arm-none-eabi/10.3.1/../../../../arm-none-eabi/lib/thumb/v7e-m/nofp/libc_nano.a(lib_a-findfp.o) (__retarget_lock_init_recursive)
/Applications/ARM/bin/../lib/gcc/arm-none-eabi/10.3.1/../../../../arm-none-eabi/lib/thumb/v7e-m/nofp/libc_nano.a(lib_a-makebuf.o)
                              /Applications/ARM/bin/../lib/gcc/arm-none-eabi/10.3.1/../../../../arm-none-eabi/lib/thumb/v7e-m/nofp/libc_nano.a(lib_a-wsetup.o) (__smakebuf_r)
/Applications/ARM/bin/../lib/gcc/arm-none-eabi/10.3.1/../../../../arm-none-eabi/lib/thumb/v7e-m/nofp/libc_nano.a(lib_a-memchr.o)
                              /Applications/ARM/bin/../lib/gcc/arm-none-eabi/10.3.1/../../../../arm-none-eabi/lib/thumb/v7e-m/nofp/libc_nano.a(lib_a-nano-svfprintf.o) (memchr)
/Applications/ARM/bin/../lib/gcc/arm-none-eabi/10.3.1/../../../../arm-none-eabi/lib/thumb/v7e-m/nofp/libc_nano.a(lib_a-nano-msizer.o)
                              /Applications/ARM/bin/../lib/gcc/arm-none-eabi/10.3.1/../../../../arm-none-eabi/lib/thumb/v7e-m/nofp/libc_nano.a(lib_a-nano-reallocr.o) (_malloc_usable_size_r)
/Applications/ARM/bin/../lib/gcc/arm-none-eabi/10.3.1/../../../../arm-none-eabi/lib/thumb/v7e-m/nofp/libc_nano.a(lib_a-signal.o)
                              /Applications/ARM/bin/../lib/gcc/arm-none-eabi/10.3.1/../../../../arm-none-eabi/lib/thumb/v7e-m/nofp/libc_nano.a(lib_a-abort.o) (raise)
/Applications/ARM/bin/../lib/gcc/arm-none-eabi/10.3.1/../../../../arm-none-eabi/lib/thumb/v7e-m/nofp/libc_nano.a(lib_a-signalr.o)
                              /Applications/ARM/bin/../lib/gcc/arm-none-eabi/10.3.1/../../../../arm-none-eabi/lib/thumb/v7e-m/nofp/libc_nano.a(lib_a-signal.o) (_kill_r)
/Applications/ARM/bin/../lib/gcc/arm-none-eabi/10.3.1/../../../../arm-none-eabi/lib/thumb/v7e-m/nofp/libc_nano.a(lib_a-stdio.o)
                              /Applications/ARM/bin/../lib/gcc/arm-none-eabi/10.3.1/../../../../arm-none-eabi/lib/thumb/v7e-m/nofp/libc_nano.a(lib_a-findfp.o) (__sread)
/Applications/ARM/bin/../lib/gcc/arm-none-eabi/10.3.1/../../../../arm-none-eabi/lib/thumb/v7e-m/nofp/libc_nano.a(lib_a-writer.o)
                              /Applications/ARM/bin/../lib/gcc/arm-none-eabi/10.3.1/../../../../arm-none-eabi/lib/thumb/v7e-m/nofp/libc_nano.a(lib_a-stdio.o) (_write_r)
/Applications/ARM/bin/../lib/gcc/arm-none-eabi/10.3.1/../../../../arm-none-eabi/lib/thumb/v7e-m/nofp/libc_nano.a(lib_a-closer.o)
                              /Applications/ARM/bin/../lib/gcc/arm-none-eabi/10.3.1/../../../../arm-none-eabi/lib/thumb/v7e-m/nofp/libc_nano.a(lib_a-stdio.o) (_close_r)
/Applications/ARM/bin/../lib/gcc/arm-none-eabi/10.3.1/../../../../arm-none-eabi/lib/thumb/v7e-m/nofp/libc_nano.a(lib_a-fstatr.o)
                              /Applications/ARM/bin/../lib/gcc/arm-none-eabi/10.3.1/../../../../arm-none-eabi/lib/thumb/v7e-m/nofp/libc_nano.a(lib_a-makebuf.o) (_fstat_r)
/Applications/ARM/bin/../lib/gcc/arm-none-eabi/10.3.1/../../../../arm-none-eabi/lib/thumb/v7e-m/nofp/libc_nano.a(lib_a-isattyr.o)
                              /Applications/ARM/bin/../lib/gcc/arm-none-eabi/10.3.1/../../../../arm-none-eabi/lib/thumb/v7e-m/nofp/libc_nano.a(lib_a-makebuf.o) (_isatty_r)
/Applications/ARM/bin/../lib/gcc/arm-none-eabi/10.3.1/../../../../arm-none-eabi/lib/thumb/v7e-m/nofp/libc_nano.a(lib_a-lseekr.o)
                              /Applications/ARM/bin/../lib/gcc/arm-none-eabi/10.3.1/../../../../arm-none-eabi/lib/thumb/v7e-m/nofp/libc_nano.a(lib_a-stdio.o) (_lseek_r)
/Applications/ARM/bin/../lib/gcc/arm-none-eabi/10.3.1/../../../../arm-none-eabi/lib/thumb/v7e-m/nofp/libc_nano.a(lib_a-readr.o)
                              /Applications/ARM/bin/../lib/gcc/arm-none-eabi/10.3.1/../../../../arm-none-eabi/lib/thumb/v7e-m/nofp/libc_nano.a(lib_a-stdio.o) (_read_r)
/Applications/ARM/bin/../lib/gcc/arm-none-eabi/10.3.1/thumb/v7e-m/nofp/libgcc.a(_aeabi_ldivmod.o)
                              ../../../driverlib/gcc/lib/Release/libdriver.a(prcm.o) (__aeabi_ldivmod)
/Applications/ARM/bin/../lib/gcc/arm-none-eabi/10.3.1/thumb/v7e-m/nofp/libgcc.a(_aeabi_uldivmod.o)
                              ../../../driverlib/gcc/lib/Release/libdriver.a(prcm.o) (__aeabi_uldivmod)
/Applications/ARM/bin/../lib/gcc/arm-none-eabi/10.3.1/thumb/v7e-m/nofp/libgcc.a(_udivmoddi4.o)
                              /Applications/ARM/bin/../lib/gcc/arm-none-eabi/10.3.1/thumb/v7e-m/nofp/libgcc.a(_aeabi_ldivmod.o) (__udivmoddi4)
/Applications/ARM/bin/../lib/gcc/arm-none-eabi/10.3.1/thumb/v7e-m/nofp/libgcc.a(_dvmd_tls.o)
                              /Applications/ARM/bin/../lib/gcc/arm-none-eabi/10.3.1/thumb/v7e-m/nofp/libgcc.a(_aeabi_ldivmod.o) (__aeabi_ldiv0)
/Applications/ARM/bin/../lib/gcc/arm-none-eabi/10.3.1/../../../../arm-none-eabi/lib/thumb/v7e-m/nofp/libnosys.a(close.o)
                              /Applications/ARM/bin/../lib/gcc/arm-none-eabi/10.3.1/../../../../arm-none-eabi/lib/thumb/v7e-m/nofp/libc_nano.a(lib_a-closer.o) (_close)
/Applications/ARM/bin/../lib/gcc/arm-none-eabi/10.3.1/../../../../arm-none-eabi/lib/thumb/v7e-m/nofp/libnosys.a(fstat.o)
                              /Applications/ARM/bin/../lib/gcc/arm-none-eabi/10.3.1/../../../../arm-none-eabi/lib/thumb/v7e-m/nofp/libc_nano.a(lib_a-fstatr.o) (_fstat)
/Applications/ARM/bin/../lib/gcc/arm-none-eabi/10.3.1/../../../../arm-none-eabi/lib/thumb/v7e-m/nofp/libnosys.a(getpid.o)
                              /Applications/ARM/bin/../lib/gcc/arm-none-eabi/10.3.1/../../../../arm-none-eabi/lib/thumb/v7e-m/nofp/libc_nano.a(lib_a-signalr.o) (_getpid)
/Applications/ARM/bin/../lib/gcc/arm-none-eabi/10.3.1/../../../../arm-none-eabi/lib/thumb/v7e-m/nofp/libnosys.a(isatty.o)
                              /Applications/ARM/bin/../lib/gcc/arm-none-eabi/10.3.1/../../../../arm-none-eabi/lib/thumb/v7e-m/nofp/libc_nano.a(lib_a-isattyr.o) (_isatty)
/Applications/ARM/bin/../lib/gcc/arm-none-eabi/10.3.1/../../../../arm-none-eabi/lib/thumb/v7e-m/nofp/libnosys.a(kill.o)
                              /Applications/ARM/bin/../lib/gcc/arm-none-eabi/10.3.1/../../../../arm-none-eabi/lib/thumb/v7e-m/nofp/libc_nano.a(lib_a-signalr.o) (_kill)
/Applications/ARM/bin/../lib/gcc/arm-none-eabi/10.3.1/../../../../arm-none-eabi/lib/thumb/v7e-m/nofp/libnosys.a(lseek.o)
                              /Applications/ARM/bin/../lib/gcc/arm-none-eabi/10.3.1/../../../../arm-none-eabi/lib/thumb/v7e-m/nofp/libc_nano.a(lib_a-lseekr.o) (_lseek)
/Applications/ARM/bin/../lib/gcc/arm-none-eabi/10.3.1/../../../../arm-none-eabi/lib/thumb/v7e-m/nofp/libnosys.a(read.o)
                              /Applications/ARM/bin/../lib/gcc/arm-none-eabi/10.3.1/../../../../arm-none-eabi/lib/thumb/v7e-m/nofp/libc_nano.a(lib_a-readr.o) (_read)
/Applications/ARM/bin/../lib/gcc/arm-none-eabi/10.3.1/../../../../arm-none-eabi/lib/thumb/v7e-m/nofp/libnosys.a(write.o)
                              /Applications/ARM/bin/../lib/gcc/arm-none-eabi/10.3.1/../../../../arm-none-eabi/lib/thumb/v7e-m/nofp/libc_nano.a(lib_a-writer.o) (_write)
/Applications/ARM/bin/../lib/gcc/arm-none-eabi/10.3.1/../../../../arm-none-eabi/lib/thumb/v7e-m/nofp/libnosys.a(_exit.o)
                              /Applications/ARM/bin/../lib/gcc/arm-none-eabi/10.3.1/../../../../arm-none-eabi/lib/thumb/v7e-m/nofp/libc_nano.a(lib_a-abort.o) (_exit)

Discarded input sections

 .text          0x0000000000000000        0x0 obj//Release/main.o
 .data          0x0000000000000000        0x0 obj//Release/main.o
 .bss           0x0000000000000000        0x0 obj//Release/main.o
 .text          0x0000000000000000        0x0 obj//Release/pinmux.o
 .data          0x0000000000000000        0x0 obj//Release/pinmux.o
 .bss           0x0000000000000000        0x0 obj//Release/pinmux.o
 .text          0x0000000000000000        0x0 obj//Release/conversions.o
 .data          0x0000000000000000        0x0 obj//Release/conversions.o
 .bss           0x0000000000000000        0x0 obj//Release/conversions.o
 .text.atoc     0x0000000000000000       0x3c obj//Release/conversions.o
 .text.atod     0x0000000000000000        0xc obj//Release/conversions.o
 .text.ascii_to_char
                0x0000000000000000       0x16 obj//Release/conversions.o
 .text          0x0000000000000000        0x0 obj//Release/serial_wifi.o
 .data          0x0000000000000000        0x0 obj//Release/serial_wifi.o
 .bss           0x0000000000000000        0x0 obj//Release/serial_wifi.o
 .text.GetCmdIndex
                0x0000000000000000       0x2c obj//Release/serial_wifi.o
 .bss.g_Key     0x0000000000000000        0x4 obj//Release/serial_wifi.o
 .bss.g_UserName
                0x0000000000000000        0x4 obj//Release/serial_wifi.o
 .bss.g_WriteFds
                0x0000000000000000        0x4 obj//Release/serial_wifi.o
 .bss.g_sockSecureFiles
                0x0000000000000000        0x4 obj//Release/serial_wifi.o
 .bss.g_ucDispBuffer
                0x0000000000000000       0x96 obj//Release/serial_wifi.o
 .bss.uBufTx    0x0000000000000000       0x64 obj//Release/serial_wifi.o
 .bss.uBufuRx   0x0000000000000000       0x20 obj//Release/serial_wifi.o
 .data.aucmDNSFileName
                0x0000000000000000        0x1 obj//Release/serial_wifi.o
 .rodata.g_Digits
                0x0000000000000000        0xb obj//Release/serial_wifi.o
 .text          0x0000000000000000        0x0 obj//Release/uart_config.o
 .data          0x0000000000000000        0x0 obj//Release/uart_config.o
 .bss           0x0000000000000000        0x0 obj//Release/uart_config.o
 .text          0x0000000000000000        0x0 obj//Release/network_if.o
 .data          0x0000000000000000        0x0 obj//Release/network_if.o
 .bss           0x0000000000000000        0x0 obj//Release/network_if.o
 .text.vAssertCalled
                0x0000000000000000        0x2 obj//Release/network_if.o
 .rodata.ConfigureSimpleLinkToDefaultState.str1.1
                0x0000000000000000       0x87 obj//Release/network_if.o
 .text.ConfigureSimpleLinkToDefaultState
                0x0000000000000000      0x22c obj//Release/network_if.o
 .rodata.Network_IF_InitDriver.str1.1
                0x0000000000000000      0x152 obj//Release/network_if.o
 .text.Network_IF_InitDriver
                0x0000000000000000      0x140 obj//Release/network_if.o
 .text.Network_IF_DisconnectFromAP
                0x0000000000000000       0x28 obj//Release/network_if.o
 .rodata.Network_IF_DeInitDriver.str1.1
                0x0000000000000000       0x13 obj//Release/network_if.o
 .text.Network_IF_DeInitDriver
                0x0000000000000000       0x28 obj//Release/network_if.o
 .text.Network_IF_IpConfigGet
                0x0000000000000000       0x58 obj//Release/network_if.o
 .rodata.Network_IF_ConnectAP.str1.1
                0x0000000000000000       0xb6 obj//Release/network_if.o
 .text.Network_IF_ConnectAP
                0x0000000000000000      0x1b8 obj//Release/network_if.o
 .rodata.Network_IF_GetHostIP.str1.1
                0x0000000000000000       0x36 obj//Release/network_if.o
 .text.Network_IF_GetHostIP
                0x0000000000000000       0x58 obj//Release/network_if.o
 .text.Network_IF_ResetMCUStateMachine
                0x0000000000000000        0xc obj//Release/network_if.o
 .text.Network_IF_CurrentMCUState
                0x0000000000000000        0xc obj//Release/network_if.o
 .text.Network_IF_SetMCUMachineState
                0x0000000000000000       0x14 obj//Release/network_if.o
 .text.Network_IF_UnsetMCUMachineState
                0x0000000000000000       0x14 obj//Release/network_if.o
 .text.itoa     0x0000000000000000       0x4c obj//Release/network_if.o
 .bss.g_usConnectIndex
                0x0000000000000000        0x2 obj//Release/network_if.o
 .rodata.__FUNCTION__.0
                0x0000000000000000       0x15 obj//Release/network_if.o
 .rodata.__FUNCTION__.1
                0x0000000000000000       0x17 obj//Release/network_if.o
 .rodata.__FUNCTION__.2
                0x0000000000000000       0x15 obj//Release/network_if.o
 .rodata.__FUNCTION__.3
                0x0000000000000000       0x16 obj//Release/network_if.o
 .rodata.__FUNCTION__.4
                0x0000000000000000       0x22 obj//Release/network_if.o
 .rodata.pcDigits
                0x0000000000000000        0xb obj//Release/network_if.o
 .text          0x0000000000000000        0x0 obj//Release/uart_if.o
 .data          0x0000000000000000        0x0 obj//Release/uart_if.o
 .bss           0x0000000000000000        0x0 obj//Release/uart_if.o
 .text.Error    0x0000000000000000       0x34 obj//Release/uart_if.o
 .text.TrimSpace
                0x0000000000000000       0x4c obj//Release/uart_if.o
 .rodata.GetCmd.str1.1
                0x0000000000000000        0x3 obj//Release/uart_if.o
 .text.GetCmd   0x0000000000000000       0xa8 obj//Release/uart_if.o
 .data.ilen     0x0000000000000000        0x4 obj//Release/uart_if.o
 .text          0x0000000000000000        0x0 obj//Release/startup_gcc.o
 .data          0x0000000000000000        0x0 obj//Release/startup_gcc.o
 .bss           0x0000000000000000        0x0 obj//Release/startup_gcc.o
 .text          0x0000000000000000        0x0 ../../../simplelink/gcc/lib/os/Release/libsimplelink.a(device.o)
 .data          0x0000000000000000        0x0 ../../../simplelink/gcc/lib/os/Release/libsimplelink.a(device.o)
 .bss           0x0000000000000000        0x0 ../../../simplelink/gcc/lib/os/Release/libsimplelink.a(device.o)
 .text.sl_Stop_WithNwpLpdsPoll
                0x0000000000000000       0xa0 ../../../simplelink/gcc/lib/os/Release/libsimplelink.a(device.o)
 .text.sl_EventMaskSet
                0x0000000000000000       0x40 ../../../simplelink/gcc/lib/os/Release/libsimplelink.a(device.o)
 .text.sl_EventMaskGet
                0x0000000000000000       0x3c ../../../simplelink/gcc/lib/os/Release/libsimplelink.a(device.o)
 .rodata._SlEventMaskGetCmdCtrl
                0x0000000000000000        0x4 ../../../simplelink/gcc/lib/os/Release/libsimplelink.a(device.o)
 .rodata._SlEventMaskSetCmdCtrl
                0x0000000000000000        0x4 ../../../simplelink/gcc/lib/os/Release/libsimplelink.a(device.o)
 .text          0x0000000000000000        0x0 ../../../simplelink/gcc/lib/os/Release/libsimplelink.a(driver.o)
 .data          0x0000000000000000        0x0 ../../../simplelink/gcc/lib/os/Release/libsimplelink.a(driver.o)
 .bss           0x0000000000000000        0x0 ../../../simplelink/gcc/lib/os/Release/libsimplelink.a(driver.o)
 .text._SlDrvStartMeasureTimeout
                0x0000000000000000       0x14 ../../../simplelink/gcc/lib/os/Release/libsimplelink.a(driver.o)
 .text          0x0000000000000000        0x0 ../../../simplelink/gcc/lib/os/Release/libsimplelink.a(netapp.o)
 .data          0x0000000000000000        0x0 ../../../simplelink/gcc/lib/os/Release/libsimplelink.a(netapp.o)
 .bss           0x0000000000000000        0x0 ../../../simplelink/gcc/lib/os/Release/libsimplelink.a(netapp.o)
 .text.sl_NetAppStart
                0x0000000000000000       0x3c ../../../simplelink/gcc/lib/os/Release/libsimplelink.a(netapp.o)
 .text.sl_NetAppStop
                0x0000000000000000       0x3c ../../../simplelink/gcc/lib/os/Release/libsimplelink.a(netapp.o)
 .text.sl_NetAppGetServiceList
                0x0000000000000000       0x90 ../../../simplelink/gcc/lib/os/Release/libsimplelink.a(netapp.o)
 .text._sl_HandleAsync_DnsGetHostByAddr
                0x0000000000000000        0x4 ../../../simplelink/gcc/lib/os/Release/libsimplelink.a(netapp.o)
 .text.sl_NetAppDnsGetHostByName
                0x0000000000000000       0xd0 ../../../simplelink/gcc/lib/os/Release/libsimplelink.a(netapp.o)
 .text.sl_NetAppSet
                0x0000000000000000       0x60 ../../../simplelink/gcc/lib/os/Release/libsimplelink.a(netapp.o)
 .text.sl_NetAppGet
                0x0000000000000000       0x78 ../../../simplelink/gcc/lib/os/Release/libsimplelink.a(netapp.o)
 .rodata.CSWTCH.61
                0x0000000000000000        0x6 ../../../simplelink/gcc/lib/os/Release/libsimplelink.a(netapp.o)
 .rodata._SlGetHostByNameCtrl
                0x0000000000000000        0x4 ../../../simplelink/gcc/lib/os/Release/libsimplelink.a(netapp.o)
 .rodata._SlGetServiceListeCtrl
                0x0000000000000000        0x4 ../../../simplelink/gcc/lib/os/Release/libsimplelink.a(netapp.o)
 .rodata._SlNetAppGetCmdCtrl
                0x0000000000000000        0x4 ../../../simplelink/gcc/lib/os/Release/libsimplelink.a(netapp.o)
 .rodata._SlNetAppSetCmdCtrl
                0x0000000000000000        0x4 ../../../simplelink/gcc/lib/os/Release/libsimplelink.a(netapp.o)
 .rodata._SlNetAppStartCtrl
                0x0000000000000000        0x4 ../../../simplelink/gcc/lib/os/Release/libsimplelink.a(netapp.o)
 .rodata._SlNetAppStopCtrl
                0x0000000000000000        0x4 ../../../simplelink/gcc/lib/os/Release/libsimplelink.a(netapp.o)
 .text          0x0000000000000000        0x0 ../../../simplelink/gcc/lib/os/Release/libsimplelink.a(netcfg.o)
 .data          0x0000000000000000        0x0 ../../../simplelink/gcc/lib/os/Release/libsimplelink.a(netcfg.o)
 .bss           0x0000000000000000        0x0 ../../../simplelink/gcc/lib/os/Release/libsimplelink.a(netcfg.o)
 .text.sl_NetCfgGet
                0x0000000000000000       0x90 ../../../simplelink/gcc/lib/os/Release/libsimplelink.a(netcfg.o)
 .rodata._SlNetCfgGetCmdCtrl
                0x0000000000000000        0x4 ../../../simplelink/gcc/lib/os/Release/libsimplelink.a(netcfg.o)
 .text          0x0000000000000000        0x0 ../../../simplelink/gcc/lib/os/Release/libsimplelink.a(fs.o)
 .data          0x0000000000000000        0x0 ../../../simplelink/gcc/lib/os/Release/libsimplelink.a(fs.o)
 .bss           0x0000000000000000        0x0 ../../../simplelink/gcc/lib/os/Release/libsimplelink.a(fs.o)
 .text.sl_FsGetInfo
                0x0000000000000000       0x78 ../../../simplelink/gcc/lib/os/Release/libsimplelink.a(fs.o)
 .text.sl_FsDel
                0x0000000000000000       0x58 ../../../simplelink/gcc/lib/os/Release/libsimplelink.a(fs.o)
 .rodata._SlFsDeleteCmdCtrl
                0x0000000000000000        0x4 ../../../simplelink/gcc/lib/os/Release/libsimplelink.a(fs.o)
 .rodata._SlFsGetInfoCmdCtrl
                0x0000000000000000        0x4 ../../../simplelink/gcc/lib/os/Release/libsimplelink.a(fs.o)
 .text          0x0000000000000000        0x0 ../../../simplelink/gcc/lib/os/Release/libsimplelink.a(socket.o)
 .data          0x0000000000000000        0x0 ../../../simplelink/gcc/lib/os/Release/libsimplelink.a(socket.o)
 .bss           0x0000000000000000        0x0 ../../../simplelink/gcc/lib/os/Release/libsimplelink.a(socket.o)
 .text._sl_ParseAddress
                0x0000000000000000       0x30 ../../../simplelink/gcc/lib/os/Release/libsimplelink.a(socket.o)
 .text.sl_Htons
                0x0000000000000000        0xa ../../../simplelink/gcc/lib/os/Release/libsimplelink.a(socket.o)
 .text.SL_FD_CLR
                0x0000000000000000       0x14 ../../../simplelink/gcc/lib/os/Release/libsimplelink.a(socket.o)
 .text.SL_FD_ISSET
                0x0000000000000000       0x14 ../../../simplelink/gcc/lib/os/Release/libsimplelink.a(socket.o)
 .text          0x0000000000000000        0x0 ../../../simplelink/gcc/lib/os/Release/libsimplelink.a(wlan.o)
 .data          0x0000000000000000        0x0 ../../../simplelink/gcc/lib/os/Release/libsimplelink.a(wlan.o)
 .bss           0x0000000000000000        0x0 ../../../simplelink/gcc/lib/os/Release/libsimplelink.a(wlan.o)
 .text.sl_WlanPolicyGet
                0x0000000000000000       0xa0 ../../../simplelink/gcc/lib/os/Release/libsimplelink.a(wlan.o)
 .text.sl_WlanProfileGet
                0x0000000000000000       0xc8 ../../../simplelink/gcc/lib/os/Release/libsimplelink.a(wlan.o)
 .text.sl_WlanProfileDel
                0x0000000000000000       0x40 ../../../simplelink/gcc/lib/os/Release/libsimplelink.a(wlan.o)
 .text.sl_WlanGetNetworkList
                0x0000000000000000       0x68 ../../../simplelink/gcc/lib/os/Release/libsimplelink.a(wlan.o)
 .text.sl_WlanRxFilterAdd
                0x0000000000000000       0x7c ../../../simplelink/gcc/lib/os/Release/libsimplelink.a(wlan.o)
 .text.sl_WlanRxFilterSet
                0x0000000000000000       0x54 ../../../simplelink/gcc/lib/os/Release/libsimplelink.a(wlan.o)
 .text.sl_WlanRxFilterGet
                0x0000000000000000       0x70 ../../../simplelink/gcc/lib/os/Release/libsimplelink.a(wlan.o)
 .text.sl_WlanRxStatStart
                0x0000000000000000       0x28 ../../../simplelink/gcc/lib/os/Release/libsimplelink.a(wlan.o)
 .text.sl_WlanRxStatStop
                0x0000000000000000       0x28 ../../../simplelink/gcc/lib/os/Release/libsimplelink.a(wlan.o)
 .text.sl_WlanRxStatGet
                0x0000000000000000       0x44 ../../../simplelink/gcc/lib/os/Release/libsimplelink.a(wlan.o)
 .text.sl_WlanSmartConfigStop
                0x0000000000000000       0x28 ../../../simplelink/gcc/lib/os/Release/libsimplelink.a(wlan.o)
 .text.sl_WlanSmartConfigStart
                0x0000000000000000       0x84 ../../../simplelink/gcc/lib/os/Release/libsimplelink.a(wlan.o)
 .text.sl_WlanGet
                0x0000000000000000       0x90 ../../../simplelink/gcc/lib/os/Release/libsimplelink.a(wlan.o)
 .rodata        0x0000000000000000        0x4 ../../../simplelink/gcc/lib/os/Release/libsimplelink.a(wlan.o)
 .rodata._SlPolicyGetCmdCtrl
                0x0000000000000000        0x4 ../../../simplelink/gcc/lib/os/Release/libsimplelink.a(wlan.o)
 .rodata._SlProfileDelCmdCtrl
                0x0000000000000000        0x4 ../../../simplelink/gcc/lib/os/Release/libsimplelink.a(wlan.o)
 .rodata._SlProfileGetCmdCtrl
                0x0000000000000000        0x4 ../../../simplelink/gcc/lib/os/Release/libsimplelink.a(wlan.o)
 .rodata._SlRxFilterAddtCmdCtrl
                0x0000000000000000        0x4 ../../../simplelink/gcc/lib/os/Release/libsimplelink.a(wlan.o)
 .rodata._SlRxFilterGetCmdCtrl
                0x0000000000000000        0x4 ../../../simplelink/gcc/lib/os/Release/libsimplelink.a(wlan.o)
 .rodata._SlRxFilterSetCmdCtrl
                0x0000000000000000        0x4 ../../../simplelink/gcc/lib/os/Release/libsimplelink.a(wlan.o)
 .rodata._SlSmartConfigStartCmdCtrl
                0x0000000000000000        0x4 ../../../simplelink/gcc/lib/os/Release/libsimplelink.a(wlan.o)
 .rodata._SlWlanCfgGetCmdCtrl
                0x0000000000000000        0x4 ../../../simplelink/gcc/lib/os/Release/libsimplelink.a(wlan.o)
 .rodata._SlWlanGetNetworkListCtrl
                0x0000000000000000        0x4 ../../../simplelink/gcc/lib/os/Release/libsimplelink.a(wlan.o)
 .text          0x0000000000000000        0x0 ../../../simplelink/gcc/lib/os/Release/libsimplelink.a(cc_pal.o)
 .data          0x0000000000000000        0x0 ../../../simplelink/gcc/lib/os/Release/libsimplelink.a(cc_pal.o)
 .bss           0x0000000000000000        0x0 ../../../simplelink/gcc/lib/os/Release/libsimplelink.a(cc_pal.o)
 .text.NwpPowerOff_WithNwpLpdsPoll
                0x0000000000000000       0x64 ../../../simplelink/gcc/lib/os/Release/libsimplelink.a(cc_pal.o)
 .bss.g_pHostIntHdl
                0x0000000000000000        0x4 ../../../simplelink/gcc/lib/os/Release/libsimplelink.a(cc_pal.o)
 .text          0x0000000000000000        0x0 ../../../oslib/gcc/free_rtos/Release/free_rtos.a(osi_freertos.o)
 .data          0x0000000000000000        0x0 ../../../oslib/gcc/free_rtos/Release/free_rtos.a(osi_freertos.o)
 .bss           0x0000000000000000        0x0 ../../../oslib/gcc/free_rtos/Release/free_rtos.a(osi_freertos.o)
 .text.osi_SyncObjClear
                0x0000000000000000       0x1a ../../../oslib/gcc/free_rtos/Release/free_rtos.a(osi_freertos.o)
 .text.osi_TaskDelete
                0x0000000000000000        0x6 ../../../oslib/gcc/free_rtos/Release/free_rtos.a(osi_freertos.o)
 .text.VDeleteSimpleLinkSpawnTask
                0x0000000000000000       0x28 ../../../oslib/gcc/free_rtos/Release/free_rtos.a(osi_freertos.o)
 .text.mem_Malloc
                0x0000000000000000        0x4 ../../../oslib/gcc/free_rtos/Release/free_rtos.a(osi_freertos.o)
 .text.mem_Free
                0x0000000000000000        0x4 ../../../oslib/gcc/free_rtos/Release/free_rtos.a(osi_freertos.o)
 .text.mem_set  0x0000000000000000        0x4 ../../../oslib/gcc/free_rtos/Release/free_rtos.a(osi_freertos.o)
 .text.mem_copy
                0x0000000000000000        0x4 ../../../oslib/gcc/free_rtos/Release/free_rtos.a(osi_freertos.o)
 .text.osi_EnterCritical
                0x0000000000000000        0xa ../../../oslib/gcc/free_rtos/Release/free_rtos.a(osi_freertos.o)
 .text.osi_ExitCritical
                0x0000000000000000        0x4 ../../../oslib/gcc/free_rtos/Release/free_rtos.a(osi_freertos.o)
 .text.osi_TaskDisable
                0x0000000000000000        0xa ../../../oslib/gcc/free_rtos/Release/free_rtos.a(osi_freertos.o)
 .text.osi_TaskEnable
                0x0000000000000000        0x4 ../../../oslib/gcc/free_rtos/Release/free_rtos.a(osi_freertos.o)
 .text.osi_ContextSave
                0x0000000000000000        0x2 ../../../oslib/gcc/free_rtos/Release/free_rtos.a(osi_freertos.o)
 .text.osi_ContextRestore
                0x0000000000000000        0x2 ../../../oslib/gcc/free_rtos/Release/free_rtos.a(osi_freertos.o)
 .text          0x0000000000000000        0x0 ../../../oslib/gcc/free_rtos/Release/free_rtos.a(queue.o)
 .data          0x0000000000000000        0x0 ../../../oslib/gcc/free_rtos/Release/free_rtos.a(queue.o)
 .bss           0x0000000000000000        0x0 ../../../oslib/gcc/free_rtos/Release/free_rtos.a(queue.o)
 .text.xQueueCreateCountingSemaphore
                0x0000000000000000       0x12 ../../../oslib/gcc/free_rtos/Release/free_rtos.a(queue.o)
 .text.xQueuePeek
                0x0000000000000000       0xee ../../../oslib/gcc/free_rtos/Release/free_rtos.a(queue.o)
 .text.xQueueReceiveFromISR
                0x0000000000000000       0x68 ../../../oslib/gcc/free_rtos/Release/free_rtos.a(queue.o)
 .text.xQueuePeekFromISR
                0x0000000000000000       0x30 ../../../oslib/gcc/free_rtos/Release/free_rtos.a(queue.o)
 .text.uxQueueMessagesWaiting
                0x0000000000000000       0x12 ../../../oslib/gcc/free_rtos/Release/free_rtos.a(queue.o)
 .text.uxQueueSpacesAvailable
                0x0000000000000000       0x16 ../../../oslib/gcc/free_rtos/Release/free_rtos.a(queue.o)
 .text.uxQueueMessagesWaitingFromISR
                0x0000000000000000        0x4 ../../../oslib/gcc/free_rtos/Release/free_rtos.a(queue.o)
 .text.uxQueueGetQueueNumber
                0x0000000000000000        0x4 ../../../oslib/gcc/free_rtos/Release/free_rtos.a(queue.o)
 .text.vQueueSetQueueNumber
                0x0000000000000000        0x4 ../../../oslib/gcc/free_rtos/Release/free_rtos.a(queue.o)
 .text.ucQueueGetQueueType
                0x0000000000000000        0x6 ../../../oslib/gcc/free_rtos/Release/free_rtos.a(queue.o)
 .text.xQueueIsQueueEmptyFromISR
                0x0000000000000000        0xa ../../../oslib/gcc/free_rtos/Release/free_rtos.a(queue.o)
 .text.xQueueIsQueueFullFromISR
                0x0000000000000000        0xc ../../../oslib/gcc/free_rtos/Release/free_rtos.a(queue.o)
 .text.vQueueAddToRegistry
                0x0000000000000000       0x24 ../../../oslib/gcc/free_rtos/Release/free_rtos.a(queue.o)
 .text.pcQueueGetName
                0x0000000000000000       0x24 ../../../oslib/gcc/free_rtos/Release/free_rtos.a(queue.o)
 .text.xQueueCreateSet
                0x0000000000000000        0x8 ../../../oslib/gcc/free_rtos/Release/free_rtos.a(queue.o)
 .text.xQueueAddToSet
                0x0000000000000000       0x22 ../../../oslib/gcc/free_rtos/Release/free_rtos.a(queue.o)
 .text.xQueueRemoveFromSet
                0x0000000000000000       0x20 ../../../oslib/gcc/free_rtos/Release/free_rtos.a(queue.o)
 .text.xQueueSelectFromSet
                0x0000000000000000       0x16 ../../../oslib/gcc/free_rtos/Release/free_rtos.a(queue.o)
 .text.xQueueSelectFromSetFromISR
                0x0000000000000000       0x14 ../../../oslib/gcc/free_rtos/Release/free_rtos.a(queue.o)
 .text          0x0000000000000000        0x0 ../../../oslib/gcc/free_rtos/Release/free_rtos.a(tasks.o)
 .data          0x0000000000000000        0x0 ../../../oslib/gcc/free_rtos/Release/free_rtos.a(tasks.o)
 .bss           0x0000000000000000        0x0 ../../../oslib/gcc/free_rtos/Release/free_rtos.a(tasks.o)
 .text.vTaskDelete
                0x0000000000000000       0xbc ../../../oslib/gcc/free_rtos/Release/free_rtos.a(tasks.o)
 .text.eTaskGetState
                0x0000000000000000       0x68 ../../../oslib/gcc/free_rtos/Release/free_rtos.a(tasks.o)
 .text.uxTaskPriorityGet
                0x0000000000000000       0x1c ../../../oslib/gcc/free_rtos/Release/free_rtos.a(tasks.o)
 .text.uxTaskPriorityGetFromISR
                0x0000000000000000       0x28 ../../../oslib/gcc/free_rtos/Release/free_rtos.a(tasks.o)
 .text.vTaskPrioritySet
                0x0000000000000000       0xc4 ../../../oslib/gcc/free_rtos/Release/free_rtos.a(tasks.o)
 .text.vTaskResume
                0x0000000000000000       0x88 ../../../oslib/gcc/free_rtos/Release/free_rtos.a(tasks.o)
 .text.xTaskResumeFromISR
                0x0000000000000000       0x90 ../../../oslib/gcc/free_rtos/Release/free_rtos.a(tasks.o)
 .text.vTaskEndScheduler
                0x0000000000000000       0x20 ../../../oslib/gcc/free_rtos/Release/free_rtos.a(tasks.o)
 .text.xTaskGetTickCount
                0x0000000000000000        0xc ../../../oslib/gcc/free_rtos/Release/free_rtos.a(tasks.o)
 .text.xTaskGetTickCountFromISR
                0x0000000000000000        0xc ../../../oslib/gcc/free_rtos/Release/free_rtos.a(tasks.o)
 .text.uxTaskGetNumberOfTasks
                0x0000000000000000        0xc ../../../oslib/gcc/free_rtos/Release/free_rtos.a(tasks.o)
 .text.pcTaskGetName
                0x0000000000000000       0x10 ../../../oslib/gcc/free_rtos/Release/free_rtos.a(tasks.o)
 .text.xTaskGetIdleTaskHandle
                0x0000000000000000        0xc ../../../oslib/gcc/free_rtos/Release/free_rtos.a(tasks.o)
 .text.vTaskDelayUntil
                0x0000000000000000       0x4c ../../../oslib/gcc/free_rtos/Release/free_rtos.a(tasks.o)
 .text.vTaskSuspend
                0x0000000000000000       0xbc ../../../oslib/gcc/free_rtos/Release/free_rtos.a(tasks.o)
 .text.vTaskPlaceOnUnorderedEventList
                0x0000000000000000       0x28 ../../../oslib/gcc/free_rtos/Release/free_rtos.a(tasks.o)
 .text.vTaskRemoveFromUnorderedEventList
                0x0000000000000000       0x58 ../../../oslib/gcc/free_rtos/Release/free_rtos.a(tasks.o)
 .text.vTaskSetTimeOutState
                0x0000000000000000       0x24 ../../../oslib/gcc/free_rtos/Release/free_rtos.a(tasks.o)
 .text.uxTaskGetTaskNumber
                0x0000000000000000        0x6 ../../../oslib/gcc/free_rtos/Release/free_rtos.a(tasks.o)
 .text.vTaskSetTaskNumber
                0x0000000000000000        0x6 ../../../oslib/gcc/free_rtos/Release/free_rtos.a(tasks.o)
 .text.vTaskGetInfo
                0x0000000000000000       0x7c ../../../oslib/gcc/free_rtos/Release/free_rtos.a(tasks.o)
 .text.prvListTasksWithinSingleList
                0x0000000000000000       0x5e ../../../oslib/gcc/free_rtos/Release/free_rtos.a(tasks.o)
 .text.uxTaskGetSystemState
                0x0000000000000000       0xa0 ../../../oslib/gcc/free_rtos/Release/free_rtos.a(tasks.o)
 .text.xTaskGetCurrentTaskHandle
                0x0000000000000000        0xc ../../../oslib/gcc/free_rtos/Release/free_rtos.a(tasks.o)
 .text.xTaskGetSchedulerState
                0x0000000000000000       0x20 ../../../oslib/gcc/free_rtos/Release/free_rtos.a(tasks.o)
 .text.uxTaskResetEventItemValue
                0x0000000000000000       0x18 ../../../oslib/gcc/free_rtos/Release/free_rtos.a(tasks.o)
 .text.ulTaskNotifyTake
                0x0000000000000000       0x64 ../../../oslib/gcc/free_rtos/Release/free_rtos.a(tasks.o)
 .text.xTaskNotifyWait
                0x0000000000000000       0x8c ../../../oslib/gcc/free_rtos/Release/free_rtos.a(tasks.o)
 .text.xTaskGenericNotify
                0x0000000000000000       0xa4 ../../../oslib/gcc/free_rtos/Release/free_rtos.a(tasks.o)
 .text.xTaskGenericNotifyFromISR
                0x0000000000000000       0xc4 ../../../oslib/gcc/free_rtos/Release/free_rtos.a(tasks.o)
 .text.vTaskNotifyGiveFromISR
                0x0000000000000000       0xa0 ../../../oslib/gcc/free_rtos/Release/free_rtos.a(tasks.o)
 .text.xTaskNotifyStateClear
                0x0000000000000000       0x2c ../../../oslib/gcc/free_rtos/Release/free_rtos.a(tasks.o)
 .text          0x0000000000000000        0x0 ../../../oslib/gcc/free_rtos/Release/free_rtos.a(port.o)
 .data          0x0000000000000000        0x0 ../../../oslib/gcc/free_rtos/Release/free_rtos.a(port.o)
 .bss           0x0000000000000000        0x0 ../../../oslib/gcc/free_rtos/Release/free_rtos.a(port.o)
 .text.vPortEndScheduler
                0x0000000000000000        0x2 ../../../oslib/gcc/free_rtos/Release/free_rtos.a(port.o)
 .text          0x0000000000000000        0x0 ../../../oslib/gcc/free_rtos/Release/free_rtos.a(heap_3.o)
 .data          0x0000000000000000        0x0 ../../../oslib/gcc/free_rtos/Release/free_rtos.a(heap_3.o)
 .bss           0x0000000000000000        0x0 ../../../oslib/gcc/free_rtos/Release/free_rtos.a(heap_3.o)
 .text          0x0000000000000000        0x0 ../../../oslib/gcc/free_rtos/Release/free_rtos.a(list.o)
 .data          0x0000000000000000        0x0 ../../../oslib/gcc/free_rtos/Release/free_rtos.a(list.o)
 .bss           0x0000000000000000        0x0 ../../../oslib/gcc/free_rtos/Release/free_rtos.a(list.o)
 .text          0x0000000000000000        0x0 ../../../driverlib/gcc/lib/Release/libdriver.a(interrupt.o)
 .data          0x0000000000000000        0x0 ../../../driverlib/gcc/lib/Release/libdriver.a(interrupt.o)
 .bss           0x0000000000000000        0x0 ../../../driverlib/gcc/lib/Release/libdriver.a(interrupt.o)
 .text.IntDefaultHandler
                0x0000000000000000        0x2 ../../../driverlib/gcc/lib/Release/libdriver.a(interrupt.o)
 .text.IntMasterEnable
                0x0000000000000000        0xa ../../../driverlib/gcc/lib/Release/libdriver.a(interrupt.o)
 .text.IntMasterDisable
                0x0000000000000000        0xa ../../../driverlib/gcc/lib/Release/libdriver.a(interrupt.o)
 .text.IntVTableBaseSet
                0x0000000000000000        0xa ../../../driverlib/gcc/lib/Release/libdriver.a(interrupt.o)
 .text.IntRegister
                0x0000000000000000        0xe ../../../driverlib/gcc/lib/Release/libdriver.a(interrupt.o)
 .text.IntUnregister
                0x0000000000000000       0x14 ../../../driverlib/gcc/lib/Release/libdriver.a(interrupt.o)
 .text.IntPriorityGroupingSet
                0x0000000000000000       0x1c ../../../driverlib/gcc/lib/Release/libdriver.a(interrupt.o)
 .text.IntPriorityGroupingGet
                0x0000000000000000       0x24 ../../../driverlib/gcc/lib/Release/libdriver.a(interrupt.o)
 .text.IntPrioritySet
                0x0000000000000000       0x28 ../../../driverlib/gcc/lib/Release/libdriver.a(interrupt.o)
 .text.IntPriorityGet
                0x0000000000000000       0x1c ../../../driverlib/gcc/lib/Release/libdriver.a(interrupt.o)
 .text.IntPendSet
                0x0000000000000000       0x60 ../../../driverlib/gcc/lib/Release/libdriver.a(interrupt.o)
 .text.IntPendClear
                0x0000000000000000       0x48 ../../../driverlib/gcc/lib/Release/libdriver.a(interrupt.o)
 .text.IntPriorityMaskSet
                0x0000000000000000        0x4 ../../../driverlib/gcc/lib/Release/libdriver.a(interrupt.o)
 .text.IntPriorityMaskGet
                0x0000000000000000        0x4 ../../../driverlib/gcc/lib/Release/libdriver.a(interrupt.o)
 .rodata.g_pulPendRegs
                0x0000000000000000       0x18 ../../../driverlib/gcc/lib/Release/libdriver.a(interrupt.o)
 .rodata.g_pulPriority
                0x0000000000000000       0x20 ../../../driverlib/gcc/lib/Release/libdriver.a(interrupt.o)
 .rodata.g_pulRegs
                0x0000000000000000       0xd4 ../../../driverlib/gcc/lib/Release/libdriver.a(interrupt.o)
 .rodata.g_pulUnpendRegs
                0x0000000000000000       0x18 ../../../driverlib/gcc/lib/Release/libdriver.a(interrupt.o)
 .text          0x0000000000000000        0x0 ../../../driverlib/gcc/lib/Release/libdriver.a(prcm.o)
 .data          0x0000000000000000        0x0 ../../../driverlib/gcc/lib/Release/libdriver.a(prcm.o)
 .bss           0x0000000000000000        0x0 ../../../driverlib/gcc/lib/Release/libdriver.a(prcm.o)
 .text.IsRTCUsed
                0x0000000000000000       0x18 ../../../driverlib/gcc/lib/Release/libdriver.a(prcm.o)
 .text.PRCMMCUReset
                0x0000000000000000       0x14 ../../../driverlib/gcc/lib/Release/libdriver.a(prcm.o)
 .text.PRCMPeripheralClockGet
                0x0000000000000000       0x4c ../../../driverlib/gcc/lib/Release/libdriver.a(prcm.o)
 .text.PRCMI2SClockFreqSet
                0x0000000000000000       0x24 ../../../driverlib/gcc/lib/Release/libdriver.a(prcm.o)
 .text.PRCMLPDSRestoreInfoSet
                0x0000000000000000       0x10 ../../../driverlib/gcc/lib/Release/libdriver.a(prcm.o)
 .text.PRCMLPDSEnter
                0x0000000000000000       0x44 ../../../driverlib/gcc/lib/Release/libdriver.a(prcm.o)
 .text.PRCMLPDSEnterKeepDebugIf
                0x0000000000000000       0x34 ../../../driverlib/gcc/lib/Release/libdriver.a(prcm.o)
 .text.PRCMLPDSWakeupSourceEnable
                0x0000000000000000       0x14 ../../../driverlib/gcc/lib/Release/libdriver.a(prcm.o)
 .text.PRCMLPDSWakeupSourceDisable
                0x0000000000000000       0x10 ../../../driverlib/gcc/lib/Release/libdriver.a(prcm.o)
 .text.PRCMLPDSWakeupCauseGet
                0x0000000000000000        0xc ../../../driverlib/gcc/lib/Release/libdriver.a(prcm.o)
 .text.PRCMLPDSIntervalSet
                0x0000000000000000       0x14 ../../../driverlib/gcc/lib/Release/libdriver.a(prcm.o)
 .text.PRCMLPDSWakeUpGPIOSelect
                0x0000000000000000       0x28 ../../../driverlib/gcc/lib/Release/libdriver.a(prcm.o)
 .text.PRCMSleepEnter
                0x0000000000000000        0x4 ../../../driverlib/gcc/lib/Release/libdriver.a(prcm.o)
 .text.PRCMSRAMRetentionEnable
                0x0000000000000000       0x14 ../../../driverlib/gcc/lib/Release/libdriver.a(prcm.o)
 .text.PRCMSRAMRetentionDisable
                0x0000000000000000       0x18 ../../../driverlib/gcc/lib/Release/libdriver.a(prcm.o)
 .text.PRCMHibernateWakeupSourceEnable
                0x0000000000000000       0x4c ../../../driverlib/gcc/lib/Release/libdriver.a(prcm.o)
 .text.PRCMHibernateWakeupSourceDisable
                0x0000000000000000       0x50 ../../../driverlib/gcc/lib/Release/libdriver.a(prcm.o)
 .text.PRCMHibernateWakeupCauseGet
                0x0000000000000000       0x1c ../../../driverlib/gcc/lib/Release/libdriver.a(prcm.o)
 .text.PRCMHibernateIntervalSet
                0x0000000000000000       0x58 ../../../driverlib/gcc/lib/Release/libdriver.a(prcm.o)
 .text.PRCMHibernateWakeUpGPIOSelect
                0x0000000000000000       0x54 ../../../driverlib/gcc/lib/Release/libdriver.a(prcm.o)
 .text.PRCMHibernateEnter
                0x0000000000000000       0x1c ../../../driverlib/gcc/lib/Release/libdriver.a(prcm.o)
 .text.PRCMSlowClkCtrGet
                0x0000000000000000       0x34 ../../../driverlib/gcc/lib/Release/libdriver.a(prcm.o)
 .text.PRCMSlowClkCtrFastGet
                0x0000000000000000       0x10 ../../../driverlib/gcc/lib/Release/libdriver.a(prcm.o)
 .text.PRCMSlowClkCtrMatchSet
                0x0000000000000000       0x28 ../../../driverlib/gcc/lib/Release/libdriver.a(prcm.o)
 .text.PRCMSlowClkCtrMatchGet
                0x0000000000000000       0x28 ../../../driverlib/gcc/lib/Release/libdriver.a(prcm.o)
 .text.PRCMOCRRegisterWrite
                0x0000000000000000       0x14 ../../../driverlib/gcc/lib/Release/libdriver.a(prcm.o)
 .text.PRCMOCRRegisterRead
                0x0000000000000000       0x18 ../../../driverlib/gcc/lib/Release/libdriver.a(prcm.o)
 .text.PRCMIntRegister
                0x0000000000000000       0x14 ../../../driverlib/gcc/lib/Release/libdriver.a(prcm.o)
 .text.PRCMIntUnregister
                0x0000000000000000       0x12 ../../../driverlib/gcc/lib/Release/libdriver.a(prcm.o)
 .text.PRCMIntEnable
                0x0000000000000000       0x40 ../../../driverlib/gcc/lib/Release/libdriver.a(prcm.o)
 .text.PRCMIntDisable
                0x0000000000000000       0x40 ../../../driverlib/gcc/lib/Release/libdriver.a(prcm.o)
 .text.PRCMIntStatus
                0x0000000000000000        0xc ../../../driverlib/gcc/lib/Release/libdriver.a(prcm.o)
 .text.PRCMRTCInUseSet
                0x0000000000000000       0x1c ../../../driverlib/gcc/lib/Release/libdriver.a(prcm.o)
 .text.PRCMRTCInUseGet
                0x0000000000000000        0xe ../../../driverlib/gcc/lib/Release/libdriver.a(prcm.o)
 .text.PRCMRTCSet
                0x0000000000000000       0x5c ../../../driverlib/gcc/lib/Release/libdriver.a(prcm.o)
 .text.PRCMRTCGet
                0x0000000000000000       0x64 ../../../driverlib/gcc/lib/Release/libdriver.a(prcm.o)
 .text.PRCMRTCMatchSet
                0x0000000000000000       0x5c ../../../driverlib/gcc/lib/Release/libdriver.a(prcm.o)
 .text.PRCMRTCMatchGet
                0x0000000000000000       0x68 ../../../driverlib/gcc/lib/Release/libdriver.a(prcm.o)
 .text.PRCMHIBRegRead
                0x0000000000000000       0x10 ../../../driverlib/gcc/lib/Release/libdriver.a(prcm.o)
 .text.PRCMHIBRegWrite
                0x0000000000000000        0xa ../../../driverlib/gcc/lib/Release/libdriver.a(prcm.o)
 .text.PRCMCameraFreqSet
                0x0000000000000000       0x28 ../../../driverlib/gcc/lib/Release/libdriver.a(prcm.o)
 .text          0x0000000000000000        0x0 ../../../driverlib/gcc/lib/Release/libdriver.a(spi.o)
 .data          0x0000000000000000        0x0 ../../../driverlib/gcc/lib/Release/libdriver.a(spi.o)
 .bss           0x0000000000000000        0x0 ../../../driverlib/gcc/lib/Release/libdriver.a(spi.o)
 .text.SPIDmaMaskGet
                0x0000000000000000       0x38 ../../../driverlib/gcc/lib/Release/libdriver.a(spi.o)
 .text.SPIEnable
                0x0000000000000000        0xe ../../../driverlib/gcc/lib/Release/libdriver.a(spi.o)
 .text.SPIDisable
                0x0000000000000000        0xe ../../../driverlib/gcc/lib/Release/libdriver.a(spi.o)
 .text.SPIReset
                0x0000000000000000       0x16 ../../../driverlib/gcc/lib/Release/libdriver.a(spi.o)
 .text.SPIDataGetNonBlocking
                0x0000000000000000       0x16 ../../../driverlib/gcc/lib/Release/libdriver.a(spi.o)
 .text.SPIDataGet
                0x0000000000000000       0x10 ../../../driverlib/gcc/lib/Release/libdriver.a(spi.o)
 .text.SPIDataPutNonBlocking
                0x0000000000000000       0x14 ../../../driverlib/gcc/lib/Release/libdriver.a(spi.o)
 .text.SPIDataPut
                0x0000000000000000        0xe ../../../driverlib/gcc/lib/Release/libdriver.a(spi.o)
 .text.SPIFIFOEnable
                0x0000000000000000        0xc ../../../driverlib/gcc/lib/Release/libdriver.a(spi.o)
 .text.SPIDmaEnable
                0x0000000000000000        0x4 ../../../driverlib/gcc/lib/Release/libdriver.a(spi.o)
 .text.SPIFIFOLevelSet
                0x0000000000000000       0x18 ../../../driverlib/gcc/lib/Release/libdriver.a(spi.o)
 .text.SPIFIFOLevelGet
                0x0000000000000000       0x10 ../../../driverlib/gcc/lib/Release/libdriver.a(spi.o)
 .text.SPIWordCountSet
                0x0000000000000000       0x10 ../../../driverlib/gcc/lib/Release/libdriver.a(spi.o)
 .text.SPIIntRegister
                0x0000000000000000       0x4c ../../../driverlib/gcc/lib/Release/libdriver.a(spi.o)
 .text.SPIIntUnregister
                0x0000000000000000       0x4c ../../../driverlib/gcc/lib/Release/libdriver.a(spi.o)
 .text.SPIIntEnable
                0x0000000000000000       0x3c ../../../driverlib/gcc/lib/Release/libdriver.a(spi.o)
 .text.SPIIntDisable
                0x0000000000000000       0x40 ../../../driverlib/gcc/lib/Release/libdriver.a(spi.o)
 .text.SPIIntStatus
                0x0000000000000000       0x44 ../../../driverlib/gcc/lib/Release/libdriver.a(spi.o)
 .text.SPIIntClear
                0x0000000000000000       0x38 ../../../driverlib/gcc/lib/Release/libdriver.a(spi.o)
 .text.SPICSEnable
                0x0000000000000000        0xe ../../../driverlib/gcc/lib/Release/libdriver.a(spi.o)
 .text.SPICSDisable
                0x0000000000000000        0xe ../../../driverlib/gcc/lib/Release/libdriver.a(spi.o)
 .text.SPITransfer
                0x0000000000000000      0x17e ../../../driverlib/gcc/lib/Release/libdriver.a(spi.o)
 .rodata.g_ppulSPIIntMap
                0x0000000000000000       0x24 ../../../driverlib/gcc/lib/Release/libdriver.a(spi.o)
 .rodata.g_ulSPIDmaMaskMap
                0x0000000000000000       0x18 ../../../driverlib/gcc/lib/Release/libdriver.a(spi.o)
 .text          0x0000000000000000        0x0 ../../../driverlib/gcc/lib/Release/libdriver.a(timer.o)
 .data          0x0000000000000000        0x0 ../../../driverlib/gcc/lib/Release/libdriver.a(timer.o)
 .bss           0x0000000000000000        0x0 ../../../driverlib/gcc/lib/Release/libdriver.a(timer.o)
 .text.TimerEnable
                0x0000000000000000       0x10 ../../../driverlib/gcc/lib/Release/libdriver.a(timer.o)
 .text.TimerDisable
                0x0000000000000000       0x12 ../../../driverlib/gcc/lib/Release/libdriver.a(timer.o)
 .text.TimerControlLevel
                0x0000000000000000       0x1c ../../../driverlib/gcc/lib/Release/libdriver.a(timer.o)
 .text.TimerControlEvent
                0x0000000000000000       0x1e ../../../driverlib/gcc/lib/Release/libdriver.a(timer.o)
 .text.TimerControlStall
                0x0000000000000000       0x1c ../../../driverlib/gcc/lib/Release/libdriver.a(timer.o)
 .text.TimerPrescaleSet
                0x0000000000000000       0x10 ../../../driverlib/gcc/lib/Release/libdriver.a(timer.o)
 .text.TimerPrescaleGet
                0x0000000000000000        0xa ../../../driverlib/gcc/lib/Release/libdriver.a(timer.o)
 .text.TimerPrescaleMatchSet
                0x0000000000000000       0x10 ../../../driverlib/gcc/lib/Release/libdriver.a(timer.o)
 .text.TimerPrescaleMatchGet
                0x0000000000000000        0xa ../../../driverlib/gcc/lib/Release/libdriver.a(timer.o)
 .text.TimerLoadSet
                0x0000000000000000       0x10 ../../../driverlib/gcc/lib/Release/libdriver.a(timer.o)
 .text.TimerLoadGet
                0x0000000000000000        0xa ../../../driverlib/gcc/lib/Release/libdriver.a(timer.o)
 .text.TimerValueGet
                0x0000000000000000        0xa ../../../driverlib/gcc/lib/Release/libdriver.a(timer.o)
 .text.TimerValueSet
                0x0000000000000000        0xa ../../../driverlib/gcc/lib/Release/libdriver.a(timer.o)
 .text.TimerMatchSet
                0x0000000000000000       0x10 ../../../driverlib/gcc/lib/Release/libdriver.a(timer.o)
 .text.TimerMatchGet
                0x0000000000000000        0xa ../../../driverlib/gcc/lib/Release/libdriver.a(timer.o)
 .text.TimerIntRegister
                0x0000000000000000       0x5c ../../../driverlib/gcc/lib/Release/libdriver.a(timer.o)
 .text.TimerIntUnregister
                0x0000000000000000       0x58 ../../../driverlib/gcc/lib/Release/libdriver.a(timer.o)
 .text.TimerIntEnable
                0x0000000000000000        0x8 ../../../driverlib/gcc/lib/Release/libdriver.a(timer.o)
 .text.TimerIntDisable
                0x0000000000000000        0xa ../../../driverlib/gcc/lib/Release/libdriver.a(timer.o)
 .text.TimerIntStatus
                0x0000000000000000        0xa ../../../driverlib/gcc/lib/Release/libdriver.a(timer.o)
 .text.TimerIntClear
                0x0000000000000000        0x4 ../../../driverlib/gcc/lib/Release/libdriver.a(timer.o)
 .text.TimerDMAEventSet
                0x0000000000000000        0x4 ../../../driverlib/gcc/lib/Release/libdriver.a(timer.o)
 .text.TimerDMAEventGet
                0x0000000000000000        0x4 ../../../driverlib/gcc/lib/Release/libdriver.a(timer.o)
 .text          0x0000000000000000        0x0 ../../../driverlib/gcc/lib/Release/libdriver.a(utils.o)
 .data          0x0000000000000000        0x0 ../../../driverlib/gcc/lib/Release/libdriver.a(utils.o)
 .bss           0x0000000000000000        0x0 ../../../driverlib/gcc/lib/Release/libdriver.a(utils.o)
 .text          0x0000000000000000        0x0 ../../../driverlib/gcc/lib/Release/libdriver.a(cpu.o)
 .data          0x0000000000000000        0x0 ../../../driverlib/gcc/lib/Release/libdriver.a(cpu.o)
 .bss           0x0000000000000000        0x0 ../../../driverlib/gcc/lib/Release/libdriver.a(cpu.o)
 .text.CPUcpsid
                0x0000000000000000       0x10 ../../../driverlib/gcc/lib/Release/libdriver.a(cpu.o)
 .text.CPUprimask
                0x0000000000000000        0x6 ../../../driverlib/gcc/lib/Release/libdriver.a(cpu.o)
 .text.CPUcpsie
                0x0000000000000000       0x10 ../../../driverlib/gcc/lib/Release/libdriver.a(cpu.o)
 .text.CPUwfi   0x0000000000000000        0xc ../../../driverlib/gcc/lib/Release/libdriver.a(cpu.o)
 .text.CPUbasepriSet
                0x0000000000000000        0xe ../../../driverlib/gcc/lib/Release/libdriver.a(cpu.o)
 .text.CPUbasepriGet
                0x0000000000000000        0x6 ../../../driverlib/gcc/lib/Release/libdriver.a(cpu.o)
 .debug_info    0x0000000000000000      0x121 ../../../driverlib/gcc/lib/Release/libdriver.a(cpu.o)
 .debug_abbrev  0x0000000000000000       0xe6 ../../../driverlib/gcc/lib/Release/libdriver.a(cpu.o)
 .debug_loc     0x0000000000000000       0x54 ../../../driverlib/gcc/lib/Release/libdriver.a(cpu.o)
 .debug_aranges
                0x0000000000000000       0x48 ../../../driverlib/gcc/lib/Release/libdriver.a(cpu.o)
 .debug_ranges  0x0000000000000000       0x38 ../../../driverlib/gcc/lib/Release/libdriver.a(cpu.o)
 .debug_line    0x0000000000000000       0xc2 ../../../driverlib/gcc/lib/Release/libdriver.a(cpu.o)
 .debug_str     0x0000000000000000      0x144 ../../../driverlib/gcc/lib/Release/libdriver.a(cpu.o)
 .comment       0x0000000000000000       0x4a ../../../driverlib/gcc/lib/Release/libdriver.a(cpu.o)
 .debug_frame   0x0000000000000000       0x70 ../../../driverlib/gcc/lib/Release/libdriver.a(cpu.o)
 .ARM.attributes
                0x0000000000000000       0x2e ../../../driverlib/gcc/lib/Release/libdriver.a(cpu.o)
 .text          0x0000000000000000        0x0 ../../../driverlib/gcc/lib/Release/libdriver.a(flash.o)
 .data          0x0000000000000000        0x0 ../../../driverlib/gcc/lib/Release/libdriver.a(flash.o)
 .bss           0x0000000000000000        0x0 ../../../driverlib/gcc/lib/Release/libdriver.a(flash.o)
 .text.FlashDisable
                0x0000000000000000       0x48 ../../../driverlib/gcc/lib/Release/libdriver.a(flash.o)
 .text.FlashErase
                0x0000000000000000       0x30 ../../../driverlib/gcc/lib/Release/libdriver.a(flash.o)
 .text.FlashEraseNonBlocking
                0x0000000000000000       0x18 ../../../driverlib/gcc/lib/Release/libdriver.a(flash.o)
 .text.FlashMassErase
                0x0000000000000000       0x2c ../../../driverlib/gcc/lib/Release/libdriver.a(flash.o)
 .text.FlashMassEraseNonBlocking
                0x0000000000000000       0x18 ../../../driverlib/gcc/lib/Release/libdriver.a(flash.o)
 .text.FlashProgram
                0x0000000000000000       0x60 ../../../driverlib/gcc/lib/Release/libdriver.a(flash.o)
 .text.FlashProgramNonBlocking
                0x0000000000000000       0x5c ../../../driverlib/gcc/lib/Release/libdriver.a(flash.o)
 .text.FlashProtectGet
                0x0000000000000000       0x44 ../../../driverlib/gcc/lib/Release/libdriver.a(flash.o)
 .text.FlashIntRegister
                0x0000000000000000       0x14 ../../../driverlib/gcc/lib/Release/libdriver.a(flash.o)
 .text.FlashIntUnregister
                0x0000000000000000       0x12 ../../../driverlib/gcc/lib/Release/libdriver.a(flash.o)
 .text.FlashIntEnable
                0x0000000000000000       0x10 ../../../driverlib/gcc/lib/Release/libdriver.a(flash.o)
 .text.FlashIntDisable
                0x0000000000000000       0x10 ../../../driverlib/gcc/lib/Release/libdriver.a(flash.o)
 .text.FlashIntStatus
                0x0000000000000000       0x10 ../../../driverlib/gcc/lib/Release/libdriver.a(flash.o)
 .text.FlashIntClear
                0x0000000000000000        0xc ../../../driverlib/gcc/lib/Release/libdriver.a(flash.o)
 .rodata.g_pulFMPPERegs
                0x0000000000000000       0x40 ../../../driverlib/gcc/lib/Release/libdriver.a(flash.o)
 .rodata.g_pulFMPRERegs
                0x0000000000000000       0x40 ../../../driverlib/gcc/lib/Release/libdriver.a(flash.o)
 .debug_info    0x0000000000000000      0x432 ../../../driverlib/gcc/lib/Release/libdriver.a(flash.o)
 .debug_abbrev  0x0000000000000000      0x1c6 ../../../driverlib/gcc/lib/Release/libdriver.a(flash.o)
 .debug_loc     0x0000000000000000      0x295 ../../../driverlib/gcc/lib/Release/libdriver.a(flash.o)
 .debug_aranges
                0x0000000000000000       0x88 ../../../driverlib/gcc/lib/Release/libdriver.a(flash.o)
 .debug_ranges  0x0000000000000000       0x78 ../../../driverlib/gcc/lib/Release/libdriver.a(flash.o)
 .debug_line    0x0000000000000000      0x465 ../../../driverlib/gcc/lib/Release/libdriver.a(flash.o)
 .debug_str     0x0000000000000000      0x2f2 ../../../driverlib/gcc/lib/Release/libdriver.a(flash.o)
 .comment       0x0000000000000000       0x4a ../../../driverlib/gcc/lib/Release/libdriver.a(flash.o)
 .debug_frame   0x0000000000000000      0x13c ../../../driverlib/gcc/lib/Release/libdriver.a(flash.o)
 .ARM.attributes
                0x0000000000000000       0x2e ../../../driverlib/gcc/lib/Release/libdriver.a(flash.o)
 .text          0x0000000000000000        0x0 /Applications/ARM/bin/../lib/gcc/arm-none-eabi/10.3.1/../../../../arm-none-eabi/lib/thumb/v7e-m/nofp/libc_nano.a(lib_a-malloc.o)
 .data          0x0000000000000000        0x0 /Applications/ARM/bin/../lib/gcc/arm-none-eabi/10.3.1/../../../../arm-none-eabi/lib/thumb/v7e-m/nofp/libc_nano.a(lib_a-malloc.o)
 .bss           0x0000000000000000        0x0 /Applications/ARM/bin/../lib/gcc/arm-none-eabi/10.3.1/../../../../arm-none-eabi/lib/thumb/v7e-m/nofp/libc_nano.a(lib_a-malloc.o)
 .text          0x0000000000000000        0x0 /Applications/ARM/bin/../lib/gcc/arm-none-eabi/10.3.1/../../../../arm-none-eabi/lib/thumb/v7e-m/nofp/libc_nano.a(lib_a-memcpy-stub.o)
 .data          0x0000000000000000        0x0 /Applications/ARM/bin/../lib/gcc/arm-none-eabi/10.3.1/../../../../arm-none-eabi/lib/thumb/v7e-m/nofp/libc_nano.a(lib_a-memcpy-stub.o)
 .bss           0x0000000000000000        0x0 /Applications/ARM/bin/../lib/gcc/arm-none-eabi/10.3.1/../../../../arm-none-eabi/lib/thumb/v7e-m/nofp/libc_nano.a(lib_a-memcpy-stub.o)
 .text          0x0000000000000000        0x0 /Applications/ARM/bin/../lib/gcc/arm-none-eabi/10.3.1/../../../../arm-none-eabi/lib/thumb/v7e-m/nofp/libc_nano.a(lib_a-memmove.o)
 .data          0x0000000000000000        0x0 /Applications/ARM/bin/../lib/gcc/arm-none-eabi/10.3.1/../../../../arm-none-eabi/lib/thumb/v7e-m/nofp/libc_nano.a(lib_a-memmove.o)
 .bss           0x0000000000000000        0x0 /Applications/ARM/bin/../lib/gcc/arm-none-eabi/10.3.1/../../../../arm-none-eabi/lib/thumb/v7e-m/nofp/libc_nano.a(lib_a-memmove.o)
 .text          0x0000000000000000        0x0 /Applications/ARM/bin/../lib/gcc/arm-none-eabi/10.3.1/../../../../arm-none-eabi/lib/thumb/v7e-m/nofp/libc_nano.a(lib_a-memset.o)
 .data          0x0000000000000000        0x0 /Applications/ARM/bin/../lib/gcc/arm-none-eabi/10.3.1/../../../../arm-none-eabi/lib/thumb/v7e-m/nofp/libc_nano.a(lib_a-memset.o)
 .bss           0x0000000000000000        0x0 /Applications/ARM/bin/../lib/gcc/arm-none-eabi/10.3.1/../../../../arm-none-eabi/lib/thumb/v7e-m/nofp/libc_nano.a(lib_a-memset.o)
 .text          0x0000000000000000        0x0 /Applications/ARM/bin/../lib/gcc/arm-none-eabi/10.3.1/../../../../arm-none-eabi/lib/thumb/v7e-m/nofp/libc_nano.a(lib_a-nano-freer.o)
 .data          0x0000000000000000        0x0 /Applications/ARM/bin/../lib/gcc/arm-none-eabi/10.3.1/../../../../arm-none-eabi/lib/thumb/v7e-m/nofp/libc_nano.a(lib_a-nano-freer.o)
 .bss           0x0000000000000000        0x0 /Applications/ARM/bin/../lib/gcc/arm-none-eabi/10.3.1/../../../../arm-none-eabi/lib/thumb/v7e-m/nofp/libc_nano.a(lib_a-nano-freer.o)
 .text          0x0000000000000000        0x0 /Applications/ARM/bin/../lib/gcc/arm-none-eabi/10.3.1/../../../../arm-none-eabi/lib/thumb/v7e-m/nofp/libc_nano.a(lib_a-nano-mallocr.o)
 .data          0x0000000000000000        0x0 /Applications/ARM/bin/../lib/gcc/arm-none-eabi/10.3.1/../../../../arm-none-eabi/lib/thumb/v7e-m/nofp/libc_nano.a(lib_a-nano-mallocr.o)
 .bss           0x0000000000000000        0x0 /Applications/ARM/bin/../lib/gcc/arm-none-eabi/10.3.1/../../../../arm-none-eabi/lib/thumb/v7e-m/nofp/libc_nano.a(lib_a-nano-mallocr.o)
 .text          0x0000000000000000        0x0 /Applications/ARM/bin/../lib/gcc/arm-none-eabi/10.3.1/../../../../arm-none-eabi/lib/thumb/v7e-m/nofp/libc_nano.a(lib_a-realloc.o)
 .data          0x0000000000000000        0x0 /Applications/ARM/bin/../lib/gcc/arm-none-eabi/10.3.1/../../../../arm-none-eabi/lib/thumb/v7e-m/nofp/libc_nano.a(lib_a-realloc.o)
 .bss           0x0000000000000000        0x0 /Applications/ARM/bin/../lib/gcc/arm-none-eabi/10.3.1/../../../../arm-none-eabi/lib/thumb/v7e-m/nofp/libc_nano.a(lib_a-realloc.o)
 .text          0x0000000000000000        0x0 /Applications/ARM/bin/../lib/gcc/arm-none-eabi/10.3.1/../../../../arm-none-eabi/lib/thumb/v7e-m/nofp/libc_nano.a(lib_a-sbrkr.o)
 .data          0x0000000000000000        0x0 /Applications/ARM/bin/../lib/gcc/arm-none-eabi/10.3.1/../../../../arm-none-eabi/lib/thumb/v7e-m/nofp/libc_nano.a(lib_a-sbrkr.o)
 .bss           0x0000000000000000        0x0 /Applications/ARM/bin/../lib/gcc/arm-none-eabi/10.3.1/../../../../arm-none-eabi/lib/thumb/v7e-m/nofp/libc_nano.a(lib_a-sbrkr.o)
 .text          0x0000000000000000        0x0 /Applications/ARM/bin/../lib/gcc/arm-none-eabi/10.3.1/../../../../arm-none-eabi/lib/thumb/v7e-m/nofp/libc_nano.a(lib_a-strchr.o)
 .data          0x0000000000000000        0x0 /Applications/ARM/bin/../lib/gcc/arm-none-eabi/10.3.1/../../../../arm-none-eabi/lib/thumb/v7e-m/nofp/libc_nano.a(lib_a-strchr.o)
 .bss           0x0000000000000000        0x0 /Applications/ARM/bin/../lib/gcc/arm-none-eabi/10.3.1/../../../../arm-none-eabi/lib/thumb/v7e-m/nofp/libc_nano.a(lib_a-strchr.o)
 .data          0x0000000000000000        0x0 /Applications/ARM/bin/../lib/gcc/arm-none-eabi/10.3.1/../../../../arm-none-eabi/lib/thumb/v7e-m/nofp/libc_nano.a(lib_a-strcmp.o)
 .bss           0x0000000000000000        0x0 /Applications/ARM/bin/../lib/gcc/arm-none-eabi/10.3.1/../../../../arm-none-eabi/lib/thumb/v7e-m/nofp/libc_nano.a(lib_a-strcmp.o)
 .text          0x0000000000000000        0x0 /Applications/ARM/bin/../lib/gcc/arm-none-eabi/10.3.1/../../../../arm-none-eabi/lib/thumb/v7e-m/nofp/libc_nano.a(lib_a-strcpy.o)
 .data          0x0000000000000000        0x0 /Applications/ARM/bin/../lib/gcc/arm-none-eabi/10.3.1/../../../../arm-none-eabi/lib/thumb/v7e-m/nofp/libc_nano.a(lib_a-strcpy.o)
 .bss           0x0000000000000000        0x0 /Applications/ARM/bin/../lib/gcc/arm-none-eabi/10.3.1/../../../../arm-none-eabi/lib/thumb/v7e-m/nofp/libc_nano.a(lib_a-strcpy.o)
 .data          0x0000000000000000        0x0 /Applications/ARM/bin/../lib/gcc/arm-none-eabi/10.3.1/../../../../arm-none-eabi/lib/thumb/v7e-m/nofp/libc_nano.a(lib_a-strlen.o)
 .bss           0x0000000000000000        0x0 /Applications/ARM/bin/../lib/gcc/arm-none-eabi/10.3.1/../../../../arm-none-eabi/lib/thumb/v7e-m/nofp/libc_nano.a(lib_a-strlen.o)
 .text          0x0000000000000000        0x0 /Applications/ARM/bin/../lib/gcc/arm-none-eabi/10.3.1/../../../../arm-none-eabi/lib/thumb/v7e-m/nofp/libc_nano.a(lib_a-strncpy.o)
 .data          0x0000000000000000        0x0 /Applications/ARM/bin/../lib/gcc/arm-none-eabi/10.3.1/../../../../arm-none-eabi/lib/thumb/v7e-m/nofp/libc_nano.a(lib_a-strncpy.o)
 .bss           0x0000000000000000        0x0 /Applications/ARM/bin/../lib/gcc/arm-none-eabi/10.3.1/../../../../arm-none-eabi/lib/thumb/v7e-m/nofp/libc_nano.a(lib_a-strncpy.o)
 .text          0x0000000000000000        0x0 /Applications/ARM/bin/../lib/gcc/arm-none-eabi/10.3.1/../../../../arm-none-eabi/lib/thumb/v7e-m/nofp/libc_nano.a(lib_a-strstr.o)
 .data          0x0000000000000000        0x0 /Applications/ARM/bin/../lib/gcc/arm-none-eabi/10.3.1/../../../../arm-none-eabi/lib/thumb/v7e-m/nofp/libc_nano.a(lib_a-strstr.o)
 .bss           0x0000000000000000        0x0 /Applications/ARM/bin/../lib/gcc/arm-none-eabi/10.3.1/../../../../arm-none-eabi/lib/thumb/v7e-m/nofp/libc_nano.a(lib_a-strstr.o)
 .text          0x0000000000000000        0x0 /Applications/ARM/bin/../lib/gcc/arm-none-eabi/10.3.1/../../../../arm-none-eabi/lib/thumb/v7e-m/nofp/libc_nano.a(lib_a-strtok.o)
 .data          0x0000000000000000        0x0 /Applications/ARM/bin/../lib/gcc/arm-none-eabi/10.3.1/../../../../arm-none-eabi/lib/thumb/v7e-m/nofp/libc_nano.a(lib_a-strtok.o)
 .bss           0x0000000000000000        0x0 /Applications/ARM/bin/../lib/gcc/arm-none-eabi/10.3.1/../../../../arm-none-eabi/lib/thumb/v7e-m/nofp/libc_nano.a(lib_a-strtok.o)
 .text          0x0000000000000000        0x0 /Applications/ARM/bin/../lib/gcc/arm-none-eabi/10.3.1/../../../../arm-none-eabi/lib/thumb/v7e-m/nofp/libc_nano.a(lib_a-strtok_r.o)
 .data          0x0000000000000000        0x0 /Applications/ARM/bin/../lib/gcc/arm-none-eabi/10.3.1/../../../../arm-none-eabi/lib/thumb/v7e-m/nofp/libc_nano.a(lib_a-strtok_r.o)
 .bss           0x0000000000000000        0x0 /Applications/ARM/bin/../lib/gcc/arm-none-eabi/10.3.1/../../../../arm-none-eabi/lib/thumb/v7e-m/nofp/libc_nano.a(lib_a-strtok_r.o)
 .text.strtok_r
                0x0000000000000000        0x6 /Applications/ARM/bin/../lib/gcc/arm-none-eabi/10.3.1/../../../../arm-none-eabi/lib/thumb/v7e-m/nofp/libc_nano.a(lib_a-strtok_r.o)
 .text          0x0000000000000000        0x0 /Applications/ARM/bin/../lib/gcc/arm-none-eabi/10.3.1/../../../../arm-none-eabi/lib/thumb/v7e-m/nofp/libc_nano.a(lib_a-strtol.o)
 .data          0x0000000000000000        0x0 /Applications/ARM/bin/../lib/gcc/arm-none-eabi/10.3.1/../../../../arm-none-eabi/lib/thumb/v7e-m/nofp/libc_nano.a(lib_a-strtol.o)
 .bss           0x0000000000000000        0x0 /Applications/ARM/bin/../lib/gcc/arm-none-eabi/10.3.1/../../../../arm-none-eabi/lib/thumb/v7e-m/nofp/libc_nano.a(lib_a-strtol.o)
 .text._strtol_r
                0x0000000000000000        0x4 /Applications/ARM/bin/../lib/gcc/arm-none-eabi/10.3.1/../../../../arm-none-eabi/lib/thumb/v7e-m/nofp/libc_nano.a(lib_a-strtol.o)
 .text.strtol_l
                0x0000000000000000       0x14 /Applications/ARM/bin/../lib/gcc/arm-none-eabi/10.3.1/../../../../arm-none-eabi/lib/thumb/v7e-m/nofp/libc_nano.a(lib_a-strtol.o)
 .text          0x0000000000000000        0x0 /Applications/ARM/bin/../lib/gcc/arm-none-eabi/10.3.1/../../../../arm-none-eabi/lib/thumb/v7e-m/nofp/libc_nano.a(lib_a-vsnprintf.o)
 .data          0x0000000000000000        0x0 /Applications/ARM/bin/../lib/gcc/arm-none-eabi/10.3.1/../../../../arm-none-eabi/lib/thumb/v7e-m/nofp/libc_nano.a(lib_a-vsnprintf.o)
 .bss           0x0000000000000000        0x0 /Applications/ARM/bin/../lib/gcc/arm-none-eabi/10.3.1/../../../../arm-none-eabi/lib/thumb/v7e-m/nofp/libc_nano.a(lib_a-vsnprintf.o)
 .text          0x0000000000000000        0x0 /Applications/ARM/bin/../lib/gcc/arm-none-eabi/10.3.1/../../../../arm-none-eabi/lib/thumb/v7e-m/nofp/libc_nano.a(lib_a-assert.o)
 .data          0x0000000000000000        0x0 /Applications/ARM/bin/../lib/gcc/arm-none-eabi/10.3.1/../../../../arm-none-eabi/lib/thumb/v7e-m/nofp/libc_nano.a(lib_a-assert.o)
 .bss           0x0000000000000000        0x0 /Applications/ARM/bin/../lib/gcc/arm-none-eabi/10.3.1/../../../../arm-none-eabi/lib/thumb/v7e-m/nofp/libc_nano.a(lib_a-assert.o)
 .text.__assert
                0x0000000000000000        0xa /Applications/ARM/bin/../lib/gcc/arm-none-eabi/10.3.1/../../../../arm-none-eabi/lib/thumb/v7e-m/nofp/libc_nano.a(lib_a-assert.o)
 .text          0x0000000000000000        0x0 /Applications/ARM/bin/../lib/gcc/arm-none-eabi/10.3.1/../../../../arm-none-eabi/lib/thumb/v7e-m/nofp/libc_nano.a(lib_a-ctype_.o)
 .data          0x0000000000000000        0x0 /Applications/ARM/bin/../lib/gcc/arm-none-eabi/10.3.1/../../../../arm-none-eabi/lib/thumb/v7e-m/nofp/libc_nano.a(lib_a-ctype_.o)
 .bss           0x0000000000000000        0x0 /Applications/ARM/bin/../lib/gcc/arm-none-eabi/10.3.1/../../../../arm-none-eabi/lib/thumb/v7e-m/nofp/libc_nano.a(lib_a-ctype_.o)
 .text          0x0000000000000000        0x0 /Applications/ARM/bin/../lib/gcc/arm-none-eabi/10.3.1/../../../../arm-none-eabi/lib/thumb/v7e-m/nofp/libc_nano.a(lib_a-errno.o)
 .data          0x0000000000000000        0x0 /Applications/ARM/bin/../lib/gcc/arm-none-eabi/10.3.1/../../../../arm-none-eabi/lib/thumb/v7e-m/nofp/libc_nano.a(lib_a-errno.o)
 .bss           0x0000000000000000        0x0 /Applications/ARM/bin/../lib/gcc/arm-none-eabi/10.3.1/../../../../arm-none-eabi/lib/thumb/v7e-m/nofp/libc_nano.a(lib_a-errno.o)
 .text          0x0000000000000000        0x0 /Applications/ARM/bin/../lib/gcc/arm-none-eabi/10.3.1/../../../../arm-none-eabi/lib/thumb/v7e-m/nofp/libc_nano.a(lib_a-fprintf.o)
 .data          0x0000000000000000        0x0 /Applications/ARM/bin/../lib/gcc/arm-none-eabi/10.3.1/../../../../arm-none-eabi/lib/thumb/v7e-m/nofp/libc_nano.a(lib_a-fprintf.o)
 .bss           0x0000000000000000        0x0 /Applications/ARM/bin/../lib/gcc/arm-none-eabi/10.3.1/../../../../arm-none-eabi/lib/thumb/v7e-m/nofp/libc_nano.a(lib_a-fprintf.o)
 .text._fprintf_r
                0x0000000000000000       0x1a /Applications/ARM/bin/../lib/gcc/arm-none-eabi/10.3.1/../../../../arm-none-eabi/lib/thumb/v7e-m/nofp/libc_nano.a(lib_a-fprintf.o)
 .text          0x0000000000000000        0x0 /Applications/ARM/bin/../lib/gcc/arm-none-eabi/10.3.1/../../../../arm-none-eabi/lib/thumb/v7e-m/nofp/libc_nano.a(lib_a-impure.o)
 .data          0x0000000000000000        0x0 /Applications/ARM/bin/../lib/gcc/arm-none-eabi/10.3.1/../../../../arm-none-eabi/lib/thumb/v7e-m/nofp/libc_nano.a(lib_a-impure.o)
 .bss           0x0000000000000000        0x0 /Applications/ARM/bin/../lib/gcc/arm-none-eabi/10.3.1/../../../../arm-none-eabi/lib/thumb/v7e-m/nofp/libc_nano.a(lib_a-impure.o)
 .text          0x0000000000000000        0x0 /Applications/ARM/bin/../lib/gcc/arm-none-eabi/10.3.1/../../../../arm-none-eabi/lib/thumb/v7e-m/nofp/libc_nano.a(lib_a-mlock.o)
 .data          0x0000000000000000        0x0 /Applications/ARM/bin/../lib/gcc/arm-none-eabi/10.3.1/../../../../arm-none-eabi/lib/thumb/v7e-m/nofp/libc_nano.a(lib_a-mlock.o)
 .bss           0x0000000000000000        0x0 /Applications/ARM/bin/../lib/gcc/arm-none-eabi/10.3.1/../../../../arm-none-eabi/lib/thumb/v7e-m/nofp/libc_nano.a(lib_a-mlock.o)
 .text          0x0000000000000000        0x0 /Applications/ARM/bin/../lib/gcc/arm-none-eabi/10.3.1/../../../../arm-none-eabi/lib/thumb/v7e-m/nofp/libc_nano.a(lib_a-nano-reallocr.o)
 .data          0x0000000000000000        0x0 /Applications/ARM/bin/../lib/gcc/arm-none-eabi/10.3.1/../../../../arm-none-eabi/lib/thumb/v7e-m/nofp/libc_nano.a(lib_a-nano-reallocr.o)
 .bss           0x0000000000000000        0x0 /Applications/ARM/bin/../lib/gcc/arm-none-eabi/10.3.1/../../../../arm-none-eabi/lib/thumb/v7e-m/nofp/libc_nano.a(lib_a-nano-reallocr.o)
 .text          0x0000000000000000        0x0 /Applications/ARM/bin/../lib/gcc/arm-none-eabi/10.3.1/../../../../arm-none-eabi/lib/thumb/v7e-m/nofp/libc_nano.a(lib_a-nano-svfprintf.o)
 .data          0x0000000000000000        0x0 /Applications/ARM/bin/../lib/gcc/arm-none-eabi/10.3.1/../../../../arm-none-eabi/lib/thumb/v7e-m/nofp/libc_nano.a(lib_a-nano-svfprintf.o)
 .bss           0x0000000000000000        0x0 /Applications/ARM/bin/../lib/gcc/arm-none-eabi/10.3.1/../../../../arm-none-eabi/lib/thumb/v7e-m/nofp/libc_nano.a(lib_a-nano-svfprintf.o)
 .text.__ssprint_r
                0x0000000000000000       0xf6 /Applications/ARM/bin/../lib/gcc/arm-none-eabi/10.3.1/../../../../arm-none-eabi/lib/thumb/v7e-m/nofp/libc_nano.a(lib_a-nano-svfprintf.o)
 .text          0x0000000000000000        0x0 /Applications/ARM/bin/../lib/gcc/arm-none-eabi/10.3.1/../../../../arm-none-eabi/lib/thumb/v7e-m/nofp/libc_nano.a(lib_a-nano-vfprintf.o)
 .data          0x0000000000000000        0x0 /Applications/ARM/bin/../lib/gcc/arm-none-eabi/10.3.1/../../../../arm-none-eabi/lib/thumb/v7e-m/nofp/libc_nano.a(lib_a-nano-vfprintf.o)
 .bss           0x0000000000000000        0x0 /Applications/ARM/bin/../lib/gcc/arm-none-eabi/10.3.1/../../../../arm-none-eabi/lib/thumb/v7e-m/nofp/libc_nano.a(lib_a-nano-vfprintf.o)
 .text.__sprint_r
                0x0000000000000000       0x1a /Applications/ARM/bin/../lib/gcc/arm-none-eabi/10.3.1/../../../../arm-none-eabi/lib/thumb/v7e-m/nofp/libc_nano.a(lib_a-nano-vfprintf.o)
 .text.vfprintf
                0x0000000000000000       0x14 /Applications/ARM/bin/../lib/gcc/arm-none-eabi/10.3.1/../../../../arm-none-eabi/lib/thumb/v7e-m/nofp/libc_nano.a(lib_a-nano-vfprintf.o)
 .text          0x0000000000000000        0x0 /Applications/ARM/bin/../lib/gcc/arm-none-eabi/10.3.1/../../../../arm-none-eabi/lib/thumb/v7e-m/nofp/libc_nano.a(lib_a-nano-vfprintf_i.o)
 .data          0x0000000000000000        0x0 /Applications/ARM/bin/../lib/gcc/arm-none-eabi/10.3.1/../../../../arm-none-eabi/lib/thumb/v7e-m/nofp/libc_nano.a(lib_a-nano-vfprintf_i.o)
 .bss           0x0000000000000000        0x0 /Applications/ARM/bin/../lib/gcc/arm-none-eabi/10.3.1/../../../../arm-none-eabi/lib/thumb/v7e-m/nofp/libc_nano.a(lib_a-nano-vfprintf_i.o)
 .text          0x0000000000000000        0x0 /Applications/ARM/bin/../lib/gcc/arm-none-eabi/10.3.1/../../../../arm-none-eabi/lib/thumb/v7e-m/nofp/libc_nano.a(lib_a-reent.o)
 .data          0x0000000000000000        0x0 /Applications/ARM/bin/../lib/gcc/arm-none-eabi/10.3.1/../../../../arm-none-eabi/lib/thumb/v7e-m/nofp/libc_nano.a(lib_a-reent.o)
 .bss           0x0000000000000000        0x0 /Applications/ARM/bin/../lib/gcc/arm-none-eabi/10.3.1/../../../../arm-none-eabi/lib/thumb/v7e-m/nofp/libc_nano.a(lib_a-reent.o)
 .text.cleanup_glue
                0x0000000000000000       0x1a /Applications/ARM/bin/../lib/gcc/arm-none-eabi/10.3.1/../../../../arm-none-eabi/lib/thumb/v7e-m/nofp/libc_nano.a(lib_a-reent.o)
 .text._reclaim_reent
                0x0000000000000000       0xb8 /Applications/ARM/bin/../lib/gcc/arm-none-eabi/10.3.1/../../../../arm-none-eabi/lib/thumb/v7e-m/nofp/libc_nano.a(lib_a-reent.o)
 .text          0x0000000000000000        0x0 /Applications/ARM/bin/../lib/gcc/arm-none-eabi/10.3.1/../../../../arm-none-eabi/lib/thumb/v7e-m/nofp/libc_nano.a(lib_a-wbuf.o)
 .data          0x0000000000000000        0x0 /Applications/ARM/bin/../lib/gcc/arm-none-eabi/10.3.1/../../../../arm-none-eabi/lib/thumb/v7e-m/nofp/libc_nano.a(lib_a-wbuf.o)
 .bss           0x0000000000000000        0x0 /Applications/ARM/bin/../lib/gcc/arm-none-eabi/10.3.1/../../../../arm-none-eabi/lib/thumb/v7e-m/nofp/libc_nano.a(lib_a-wbuf.o)
 .text.__swbuf  0x0000000000000000       0x10 /Applications/ARM/bin/../lib/gcc/arm-none-eabi/10.3.1/../../../../arm-none-eabi/lib/thumb/v7e-m/nofp/libc_nano.a(lib_a-wbuf.o)
 .text          0x0000000000000000        0x0 /Applications/ARM/bin/../lib/gcc/arm-none-eabi/10.3.1/../../../../arm-none-eabi/lib/thumb/v7e-m/nofp/libc_nano.a(lib_a-wsetup.o)
 .data          0x0000000000000000        0x0 /Applications/ARM/bin/../lib/gcc/arm-none-eabi/10.3.1/../../../../arm-none-eabi/lib/thumb/v7e-m/nofp/libc_nano.a(lib_a-wsetup.o)
 .bss           0x0000000000000000        0x0 /Applications/ARM/bin/../lib/gcc/arm-none-eabi/10.3.1/../../../../arm-none-eabi/lib/thumb/v7e-m/nofp/libc_nano.a(lib_a-wsetup.o)
 .text          0x0000000000000000        0x0 /Applications/ARM/bin/../lib/gcc/arm-none-eabi/10.3.1/../../../../arm-none-eabi/lib/thumb/v7e-m/nofp/libc_nano.a(lib_a-abort.o)
 .data          0x0000000000000000        0x0 /Applications/ARM/bin/../lib/gcc/arm-none-eabi/10.3.1/../../../../arm-none-eabi/lib/thumb/v7e-m/nofp/libc_nano.a(lib_a-abort.o)
 .bss           0x0000000000000000        0x0 /Applications/ARM/bin/../lib/gcc/arm-none-eabi/10.3.1/../../../../arm-none-eabi/lib/thumb/v7e-m/nofp/libc_nano.a(lib_a-abort.o)
 .text          0x0000000000000000        0x0 /Applications/ARM/bin/../lib/gcc/arm-none-eabi/10.3.1/../../../../arm-none-eabi/lib/thumb/v7e-m/nofp/libc_nano.a(lib_a-fflush.o)
 .data          0x0000000000000000        0x0 /Applications/ARM/bin/../lib/gcc/arm-none-eabi/10.3.1/../../../../arm-none-eabi/lib/thumb/v7e-m/nofp/libc_nano.a(lib_a-fflush.o)
 .bss           0x0000000000000000        0x0 /Applications/ARM/bin/../lib/gcc/arm-none-eabi/10.3.1/../../../../arm-none-eabi/lib/thumb/v7e-m/nofp/libc_nano.a(lib_a-fflush.o)
 .text.fflush   0x0000000000000000       0x24 /Applications/ARM/bin/../lib/gcc/arm-none-eabi/10.3.1/../../../../arm-none-eabi/lib/thumb/v7e-m/nofp/libc_nano.a(lib_a-fflush.o)
 .text          0x0000000000000000        0x0 /Applications/ARM/bin/../lib/gcc/arm-none-eabi/10.3.1/../../../../arm-none-eabi/lib/thumb/v7e-m/nofp/libc_nano.a(lib_a-findfp.o)
 .data          0x0000000000000000        0x0 /Applications/ARM/bin/../lib/gcc/arm-none-eabi/10.3.1/../../../../arm-none-eabi/lib/thumb/v7e-m/nofp/libc_nano.a(lib_a-findfp.o)
 .bss           0x0000000000000000        0x0 /Applications/ARM/bin/../lib/gcc/arm-none-eabi/10.3.1/../../../../arm-none-eabi/lib/thumb/v7e-m/nofp/libc_nano.a(lib_a-findfp.o)
 .text.__fp_lock
                0x0000000000000000       0x18 /Applications/ARM/bin/../lib/gcc/arm-none-eabi/10.3.1/../../../../arm-none-eabi/lib/thumb/v7e-m/nofp/libc_nano.a(lib_a-findfp.o)
 .text.__fp_unlock
                0x0000000000000000       0x18 /Applications/ARM/bin/../lib/gcc/arm-none-eabi/10.3.1/../../../../arm-none-eabi/lib/thumb/v7e-m/nofp/libc_nano.a(lib_a-findfp.o)
 .text._cleanup
                0x0000000000000000        0xc /Applications/ARM/bin/../lib/gcc/arm-none-eabi/10.3.1/../../../../arm-none-eabi/lib/thumb/v7e-m/nofp/libc_nano.a(lib_a-findfp.o)
 .text.__fp_lock_all
                0x0000000000000000       0x1c /Applications/ARM/bin/../lib/gcc/arm-none-eabi/10.3.1/../../../../arm-none-eabi/lib/thumb/v7e-m/nofp/libc_nano.a(lib_a-findfp.o)
 .text.__fp_unlock_all
                0x0000000000000000       0x1c /Applications/ARM/bin/../lib/gcc/arm-none-eabi/10.3.1/../../../../arm-none-eabi/lib/thumb/v7e-m/nofp/libc_nano.a(lib_a-findfp.o)
 .text          0x0000000000000000        0x0 /Applications/ARM/bin/../lib/gcc/arm-none-eabi/10.3.1/../../../../arm-none-eabi/lib/thumb/v7e-m/nofp/libc_nano.a(lib_a-fvwrite.o)
 .data          0x0000000000000000        0x0 /Applications/ARM/bin/../lib/gcc/arm-none-eabi/10.3.1/../../../../arm-none-eabi/lib/thumb/v7e-m/nofp/libc_nano.a(lib_a-fvwrite.o)
 .bss           0x0000000000000000        0x0 /Applications/ARM/bin/../lib/gcc/arm-none-eabi/10.3.1/../../../../arm-none-eabi/lib/thumb/v7e-m/nofp/libc_nano.a(lib_a-fvwrite.o)
 .text.__sfvwrite_r
                0x0000000000000000      0x290 /Applications/ARM/bin/../lib/gcc/arm-none-eabi/10.3.1/../../../../arm-none-eabi/lib/thumb/v7e-m/nofp/libc_nano.a(lib_a-fvwrite.o)
 .debug_frame   0x0000000000000000       0x3c /Applications/ARM/bin/../lib/gcc/arm-none-eabi/10.3.1/../../../../arm-none-eabi/lib/thumb/v7e-m/nofp/libc_nano.a(lib_a-fvwrite.o)
 .ARM.attributes
                0x0000000000000000       0x2e /Applications/ARM/bin/../lib/gcc/arm-none-eabi/10.3.1/../../../../arm-none-eabi/lib/thumb/v7e-m/nofp/libc_nano.a(lib_a-fvwrite.o)
 .text          0x0000000000000000        0x0 /Applications/ARM/bin/../lib/gcc/arm-none-eabi/10.3.1/../../../../arm-none-eabi/lib/thumb/v7e-m/nofp/libc_nano.a(lib_a-fwalk.o)
 .data          0x0000000000000000        0x0 /Applications/ARM/bin/../lib/gcc/arm-none-eabi/10.3.1/../../../../arm-none-eabi/lib/thumb/v7e-m/nofp/libc_nano.a(lib_a-fwalk.o)
 .bss           0x0000000000000000        0x0 /Applications/ARM/bin/../lib/gcc/arm-none-eabi/10.3.1/../../../../arm-none-eabi/lib/thumb/v7e-m/nofp/libc_nano.a(lib_a-fwalk.o)
 .text._fwalk   0x0000000000000000       0x3a /Applications/ARM/bin/../lib/gcc/arm-none-eabi/10.3.1/../../../../arm-none-eabi/lib/thumb/v7e-m/nofp/libc_nano.a(lib_a-fwalk.o)
 .text          0x0000000000000000        0x0 /Applications/ARM/bin/../lib/gcc/arm-none-eabi/10.3.1/../../../../arm-none-eabi/lib/thumb/v7e-m/nofp/libc_nano.a(lib_a-lock.o)
 .data          0x0000000000000000        0x0 /Applications/ARM/bin/../lib/gcc/arm-none-eabi/10.3.1/../../../../arm-none-eabi/lib/thumb/v7e-m/nofp/libc_nano.a(lib_a-lock.o)
 .bss           0x0000000000000000        0x0 /Applications/ARM/bin/../lib/gcc/arm-none-eabi/10.3.1/../../../../arm-none-eabi/lib/thumb/v7e-m/nofp/libc_nano.a(lib_a-lock.o)
 .text.__retarget_lock_init
                0x0000000000000000        0x2 /Applications/ARM/bin/../lib/gcc/arm-none-eabi/10.3.1/../../../../arm-none-eabi/lib/thumb/v7e-m/nofp/libc_nano.a(lib_a-lock.o)
 .text.__retarget_lock_close
                0x0000000000000000        0x2 /Applications/ARM/bin/../lib/gcc/arm-none-eabi/10.3.1/../../../../arm-none-eabi/lib/thumb/v7e-m/nofp/libc_nano.a(lib_a-lock.o)
 .text.__retarget_lock_close_recursive
                0x0000000000000000        0x2 /Applications/ARM/bin/../lib/gcc/arm-none-eabi/10.3.1/../../../../arm-none-eabi/lib/thumb/v7e-m/nofp/libc_nano.a(lib_a-lock.o)
 .text.__retarget_lock_acquire
                0x0000000000000000        0x2 /Applications/ARM/bin/../lib/gcc/arm-none-eabi/10.3.1/../../../../arm-none-eabi/lib/thumb/v7e-m/nofp/libc_nano.a(lib_a-lock.o)
 .text.__retarget_lock_try_acquire
                0x0000000000000000        0x4 /Applications/ARM/bin/../lib/gcc/arm-none-eabi/10.3.1/../../../../arm-none-eabi/lib/thumb/v7e-m/nofp/libc_nano.a(lib_a-lock.o)
 .text.__retarget_lock_try_acquire_recursive
                0x0000000000000000        0x4 /Applications/ARM/bin/../lib/gcc/arm-none-eabi/10.3.1/../../../../arm-none-eabi/lib/thumb/v7e-m/nofp/libc_nano.a(lib_a-lock.o)
 .text.__retarget_lock_release
                0x0000000000000000        0x2 /Applications/ARM/bin/../lib/gcc/arm-none-eabi/10.3.1/../../../../arm-none-eabi/lib/thumb/v7e-m/nofp/libc_nano.a(lib_a-lock.o)
 .bss.__lock___arc4random_mutex
                0x0000000000000000        0x1 /Applications/ARM/bin/../lib/gcc/arm-none-eabi/10.3.1/../../../../arm-none-eabi/lib/thumb/v7e-m/nofp/libc_nano.a(lib_a-lock.o)
 .bss.__lock___at_quick_exit_mutex
                0x0000000000000000        0x1 /Applications/ARM/bin/../lib/gcc/arm-none-eabi/10.3.1/../../../../arm-none-eabi/lib/thumb/v7e-m/nofp/libc_nano.a(lib_a-lock.o)
 .bss.__lock___atexit_recursive_mutex
                0x0000000000000000        0x1 /Applications/ARM/bin/../lib/gcc/arm-none-eabi/10.3.1/../../../../arm-none-eabi/lib/thumb/v7e-m/nofp/libc_nano.a(lib_a-lock.o)
 .bss.__lock___dd_hash_mutex
                0x0000000000000000        0x1 /Applications/ARM/bin/../lib/gcc/arm-none-eabi/10.3.1/../../../../arm-none-eabi/lib/thumb/v7e-m/nofp/libc_nano.a(lib_a-lock.o)
 .bss.__lock___env_recursive_mutex
                0x0000000000000000        0x1 /Applications/ARM/bin/../lib/gcc/arm-none-eabi/10.3.1/../../../../arm-none-eabi/lib/thumb/v7e-m/nofp/libc_nano.a(lib_a-lock.o)
 .bss.__lock___tz_mutex
                0x0000000000000000        0x1 /Applications/ARM/bin/../lib/gcc/arm-none-eabi/10.3.1/../../../../arm-none-eabi/lib/thumb/v7e-m/nofp/libc_nano.a(lib_a-lock.o)
 .text          0x0000000000000000        0x0 /Applications/ARM/bin/../lib/gcc/arm-none-eabi/10.3.1/../../../../arm-none-eabi/lib/thumb/v7e-m/nofp/libc_nano.a(lib_a-makebuf.o)
 .data          0x0000000000000000        0x0 /Applications/ARM/bin/../lib/gcc/arm-none-eabi/10.3.1/../../../../arm-none-eabi/lib/thumb/v7e-m/nofp/libc_nano.a(lib_a-makebuf.o)
 .bss           0x0000000000000000        0x0 /Applications/ARM/bin/../lib/gcc/arm-none-eabi/10.3.1/../../../../arm-none-eabi/lib/thumb/v7e-m/nofp/libc_nano.a(lib_a-makebuf.o)
 .data          0x0000000000000000        0x0 /Applications/ARM/bin/../lib/gcc/arm-none-eabi/10.3.1/../../../../arm-none-eabi/lib/thumb/v7e-m/nofp/libc_nano.a(lib_a-memchr.o)
 .bss           0x0000000000000000        0x0 /Applications/ARM/bin/../lib/gcc/arm-none-eabi/10.3.1/../../../../arm-none-eabi/lib/thumb/v7e-m/nofp/libc_nano.a(lib_a-memchr.o)
 .text          0x0000000000000000        0x0 /Applications/ARM/bin/../lib/gcc/arm-none-eabi/10.3.1/../../../../arm-none-eabi/lib/thumb/v7e-m/nofp/libc_nano.a(lib_a-nano-msizer.o)
 .data          0x0000000000000000        0x0 /Applications/ARM/bin/../lib/gcc/arm-none-eabi/10.3.1/../../../../arm-none-eabi/lib/thumb/v7e-m/nofp/libc_nano.a(lib_a-nano-msizer.o)
 .bss           0x0000000000000000        0x0 /Applications/ARM/bin/../lib/gcc/arm-none-eabi/10.3.1/../../../../arm-none-eabi/lib/thumb/v7e-m/nofp/libc_nano.a(lib_a-nano-msizer.o)
 .text          0x0000000000000000        0x0 /Applications/ARM/bin/../lib/gcc/arm-none-eabi/10.3.1/../../../../arm-none-eabi/lib/thumb/v7e-m/nofp/libc_nano.a(lib_a-signal.o)
 .data          0x0000000000000000        0x0 /Applications/ARM/bin/../lib/gcc/arm-none-eabi/10.3.1/../../../../arm-none-eabi/lib/thumb/v7e-m/nofp/libc_nano.a(lib_a-signal.o)
 .bss           0x0000000000000000        0x0 /Applications/ARM/bin/../lib/gcc/arm-none-eabi/10.3.1/../../../../arm-none-eabi/lib/thumb/v7e-m/nofp/libc_nano.a(lib_a-signal.o)
 .text._init_signal_r
                0x0000000000000000       0x28 /Applications/ARM/bin/../lib/gcc/arm-none-eabi/10.3.1/../../../../arm-none-eabi/lib/thumb/v7e-m/nofp/libc_nano.a(lib_a-signal.o)
 .text._signal_r
                0x0000000000000000       0x30 /Applications/ARM/bin/../lib/gcc/arm-none-eabi/10.3.1/../../../../arm-none-eabi/lib/thumb/v7e-m/nofp/libc_nano.a(lib_a-signal.o)
 .text.__sigtramp_r
                0x0000000000000000       0x48 /Applications/ARM/bin/../lib/gcc/arm-none-eabi/10.3.1/../../../../arm-none-eabi/lib/thumb/v7e-m/nofp/libc_nano.a(lib_a-signal.o)
 .text.signal   0x0000000000000000       0x10 /Applications/ARM/bin/../lib/gcc/arm-none-eabi/10.3.1/../../../../arm-none-eabi/lib/thumb/v7e-m/nofp/libc_nano.a(lib_a-signal.o)
 .text._init_signal
                0x0000000000000000        0xc /Applications/ARM/bin/../lib/gcc/arm-none-eabi/10.3.1/../../../../arm-none-eabi/lib/thumb/v7e-m/nofp/libc_nano.a(lib_a-signal.o)
 .text.__sigtramp
                0x0000000000000000       0x10 /Applications/ARM/bin/../lib/gcc/arm-none-eabi/10.3.1/../../../../arm-none-eabi/lib/thumb/v7e-m/nofp/libc_nano.a(lib_a-signal.o)
 .text          0x0000000000000000        0x0 /Applications/ARM/bin/../lib/gcc/arm-none-eabi/10.3.1/../../../../arm-none-eabi/lib/thumb/v7e-m/nofp/libc_nano.a(lib_a-signalr.o)
 .data          0x0000000000000000        0x0 /Applications/ARM/bin/../lib/gcc/arm-none-eabi/10.3.1/../../../../arm-none-eabi/lib/thumb/v7e-m/nofp/libc_nano.a(lib_a-signalr.o)
 .bss           0x0000000000000000        0x0 /Applications/ARM/bin/../lib/gcc/arm-none-eabi/10.3.1/../../../../arm-none-eabi/lib/thumb/v7e-m/nofp/libc_nano.a(lib_a-signalr.o)
 .text          0x0000000000000000        0x0 /Applications/ARM/bin/../lib/gcc/arm-none-eabi/10.3.1/../../../../arm-none-eabi/lib/thumb/v7e-m/nofp/libc_nano.a(lib_a-stdio.o)
 .data          0x0000000000000000        0x0 /Applications/ARM/bin/../lib/gcc/arm-none-eabi/10.3.1/../../../../arm-none-eabi/lib/thumb/v7e-m/nofp/libc_nano.a(lib_a-stdio.o)
 .bss           0x0000000000000000        0x0 /Applications/ARM/bin/../lib/gcc/arm-none-eabi/10.3.1/../../../../arm-none-eabi/lib/thumb/v7e-m/nofp/libc_nano.a(lib_a-stdio.o)
 .text.__seofread
                0x0000000000000000        0x4 /Applications/ARM/bin/../lib/gcc/arm-none-eabi/10.3.1/../../../../arm-none-eabi/lib/thumb/v7e-m/nofp/libc_nano.a(lib_a-stdio.o)
 .text          0x0000000000000000        0x0 /Applications/ARM/bin/../lib/gcc/arm-none-eabi/10.3.1/../../../../arm-none-eabi/lib/thumb/v7e-m/nofp/libc_nano.a(lib_a-writer.o)
 .data          0x0000000000000000        0x0 /Applications/ARM/bin/../lib/gcc/arm-none-eabi/10.3.1/../../../../arm-none-eabi/lib/thumb/v7e-m/nofp/libc_nano.a(lib_a-writer.o)
 .bss           0x0000000000000000        0x0 /Applications/ARM/bin/../lib/gcc/arm-none-eabi/10.3.1/../../../../arm-none-eabi/lib/thumb/v7e-m/nofp/libc_nano.a(lib_a-writer.o)
 .text          0x0000000000000000        0x0 /Applications/ARM/bin/../lib/gcc/arm-none-eabi/10.3.1/../../../../arm-none-eabi/lib/thumb/v7e-m/nofp/libc_nano.a(lib_a-closer.o)
 .data          0x0000000000000000        0x0 /Applications/ARM/bin/../lib/gcc/arm-none-eabi/10.3.1/../../../../arm-none-eabi/lib/thumb/v7e-m/nofp/libc_nano.a(lib_a-closer.o)
 .bss           0x0000000000000000        0x0 /Applications/ARM/bin/../lib/gcc/arm-none-eabi/10.3.1/../../../../arm-none-eabi/lib/thumb/v7e-m/nofp/libc_nano.a(lib_a-closer.o)
 .text          0x0000000000000000        0x0 /Applications/ARM/bin/../lib/gcc/arm-none-eabi/10.3.1/../../../../arm-none-eabi/lib/thumb/v7e-m/nofp/libc_nano.a(lib_a-fstatr.o)
 .data          0x0000000000000000        0x0 /Applications/ARM/bin/../lib/gcc/arm-none-eabi/10.3.1/../../../../arm-none-eabi/lib/thumb/v7e-m/nofp/libc_nano.a(lib_a-fstatr.o)
 .bss           0x0000000000000000        0x0 /Applications/ARM/bin/../lib/gcc/arm-none-eabi/10.3.1/../../../../arm-none-eabi/lib/thumb/v7e-m/nofp/libc_nano.a(lib_a-fstatr.o)
 .text          0x0000000000000000        0x0 /Applications/ARM/bin/../lib/gcc/arm-none-eabi/10.3.1/../../../../arm-none-eabi/lib/thumb/v7e-m/nofp/libc_nano.a(lib_a-isattyr.o)
 .data          0x0000000000000000        0x0 /Applications/ARM/bin/../lib/gcc/arm-none-eabi/10.3.1/../../../../arm-none-eabi/lib/thumb/v7e-m/nofp/libc_nano.a(lib_a-isattyr.o)
 .bss           0x0000000000000000        0x0 /Applications/ARM/bin/../lib/gcc/arm-none-eabi/10.3.1/../../../../arm-none-eabi/lib/thumb/v7e-m/nofp/libc_nano.a(lib_a-isattyr.o)
 .text          0x0000000000000000        0x0 /Applications/ARM/bin/../lib/gcc/arm-none-eabi/10.3.1/../../../../arm-none-eabi/lib/thumb/v7e-m/nofp/libc_nano.a(lib_a-lseekr.o)
 .data          0x0000000000000000        0x0 /Applications/ARM/bin/../lib/gcc/arm-none-eabi/10.3.1/../../../../arm-none-eabi/lib/thumb/v7e-m/nofp/libc_nano.a(lib_a-lseekr.o)
 .bss           0x0000000000000000        0x0 /Applications/ARM/bin/../lib/gcc/arm-none-eabi/10.3.1/../../../../arm-none-eabi/lib/thumb/v7e-m/nofp/libc_nano.a(lib_a-lseekr.o)
 .text          0x0000000000000000        0x0 /Applications/ARM/bin/../lib/gcc/arm-none-eabi/10.3.1/../../../../arm-none-eabi/lib/thumb/v7e-m/nofp/libc_nano.a(lib_a-readr.o)
 .data          0x0000000000000000        0x0 /Applications/ARM/bin/../lib/gcc/arm-none-eabi/10.3.1/../../../../arm-none-eabi/lib/thumb/v7e-m/nofp/libc_nano.a(lib_a-readr.o)
 .bss           0x0000000000000000        0x0 /Applications/ARM/bin/../lib/gcc/arm-none-eabi/10.3.1/../../../../arm-none-eabi/lib/thumb/v7e-m/nofp/libc_nano.a(lib_a-readr.o)
 .text          0x0000000000000000       0xa0 /Applications/ARM/bin/../lib/gcc/arm-none-eabi/10.3.1/thumb/v7e-m/nofp/libgcc.a(_aeabi_ldivmod.o)
 .data          0x0000000000000000        0x0 /Applications/ARM/bin/../lib/gcc/arm-none-eabi/10.3.1/thumb/v7e-m/nofp/libgcc.a(_aeabi_ldivmod.o)
 .bss           0x0000000000000000        0x0 /Applications/ARM/bin/../lib/gcc/arm-none-eabi/10.3.1/thumb/v7e-m/nofp/libgcc.a(_aeabi_ldivmod.o)
 .debug_frame   0x0000000000000000       0x44 /Applications/ARM/bin/../lib/gcc/arm-none-eabi/10.3.1/thumb/v7e-m/nofp/libgcc.a(_aeabi_ldivmod.o)
 .ARM.attributes
                0x0000000000000000       0x1e /Applications/ARM/bin/../lib/gcc/arm-none-eabi/10.3.1/thumb/v7e-m/nofp/libgcc.a(_aeabi_ldivmod.o)
 .text          0x0000000000000000       0x30 /Applications/ARM/bin/../lib/gcc/arm-none-eabi/10.3.1/thumb/v7e-m/nofp/libgcc.a(_aeabi_uldivmod.o)
 .data          0x0000000000000000        0x0 /Applications/ARM/bin/../lib/gcc/arm-none-eabi/10.3.1/thumb/v7e-m/nofp/libgcc.a(_aeabi_uldivmod.o)
 .bss           0x0000000000000000        0x0 /Applications/ARM/bin/../lib/gcc/arm-none-eabi/10.3.1/thumb/v7e-m/nofp/libgcc.a(_aeabi_uldivmod.o)
 .debug_frame   0x0000000000000000       0x2c /Applications/ARM/bin/../lib/gcc/arm-none-eabi/10.3.1/thumb/v7e-m/nofp/libgcc.a(_aeabi_uldivmod.o)
 .ARM.attributes
                0x0000000000000000       0x1e /Applications/ARM/bin/../lib/gcc/arm-none-eabi/10.3.1/thumb/v7e-m/nofp/libgcc.a(_aeabi_uldivmod.o)
 .text          0x0000000000000000      0x2d0 /Applications/ARM/bin/../lib/gcc/arm-none-eabi/10.3.1/thumb/v7e-m/nofp/libgcc.a(_udivmoddi4.o)
 .data          0x0000000000000000        0x0 /Applications/ARM/bin/../lib/gcc/arm-none-eabi/10.3.1/thumb/v7e-m/nofp/libgcc.a(_udivmoddi4.o)
 .bss           0x0000000000000000        0x0 /Applications/ARM/bin/../lib/gcc/arm-none-eabi/10.3.1/thumb/v7e-m/nofp/libgcc.a(_udivmoddi4.o)
 .ARM.extab     0x0000000000000000        0x0 /Applications/ARM/bin/../lib/gcc/arm-none-eabi/10.3.1/thumb/v7e-m/nofp/libgcc.a(_udivmoddi4.o)
 .ARM.exidx     0x0000000000000000        0x8 /Applications/ARM/bin/../lib/gcc/arm-none-eabi/10.3.1/thumb/v7e-m/nofp/libgcc.a(_udivmoddi4.o)
 .debug_frame   0x0000000000000000       0x34 /Applications/ARM/bin/../lib/gcc/arm-none-eabi/10.3.1/thumb/v7e-m/nofp/libgcc.a(_udivmoddi4.o)
 .ARM.attributes
                0x0000000000000000       0x2e /Applications/ARM/bin/../lib/gcc/arm-none-eabi/10.3.1/thumb/v7e-m/nofp/libgcc.a(_udivmoddi4.o)
 .text          0x0000000000000000        0x4 /Applications/ARM/bin/../lib/gcc/arm-none-eabi/10.3.1/thumb/v7e-m/nofp/libgcc.a(_dvmd_tls.o)
 .data          0x0000000000000000        0x0 /Applications/ARM/bin/../lib/gcc/arm-none-eabi/10.3.1/thumb/v7e-m/nofp/libgcc.a(_dvmd_tls.o)
 .bss           0x0000000000000000        0x0 /Applications/ARM/bin/../lib/gcc/arm-none-eabi/10.3.1/thumb/v7e-m/nofp/libgcc.a(_dvmd_tls.o)
 .ARM.attributes
                0x0000000000000000       0x1e /Applications/ARM/bin/../lib/gcc/arm-none-eabi/10.3.1/thumb/v7e-m/nofp/libgcc.a(_dvmd_tls.o)
 .text          0x0000000000000000        0x0 /Applications/ARM/bin/../lib/gcc/arm-none-eabi/10.3.1/../../../../arm-none-eabi/lib/thumb/v7e-m/nofp/libnosys.a(close.o)
 .data          0x0000000000000000        0x0 /Applications/ARM/bin/../lib/gcc/arm-none-eabi/10.3.1/../../../../arm-none-eabi/lib/thumb/v7e-m/nofp/libnosys.a(close.o)
 .bss           0x0000000000000000        0x0 /Applications/ARM/bin/../lib/gcc/arm-none-eabi/10.3.1/../../../../arm-none-eabi/lib/thumb/v7e-m/nofp/libnosys.a(close.o)
 .text          0x0000000000000000        0x0 /Applications/ARM/bin/../lib/gcc/arm-none-eabi/10.3.1/../../../../arm-none-eabi/lib/thumb/v7e-m/nofp/libnosys.a(fstat.o)
 .data          0x0000000000000000        0x0 /Applications/ARM/bin/../lib/gcc/arm-none-eabi/10.3.1/../../../../arm-none-eabi/lib/thumb/v7e-m/nofp/libnosys.a(fstat.o)
 .bss           0x0000000000000000        0x0 /Applications/ARM/bin/../lib/gcc/arm-none-eabi/10.3.1/../../../../arm-none-eabi/lib/thumb/v7e-m/nofp/libnosys.a(fstat.o)
 .text          0x0000000000000000        0x0 /Applications/ARM/bin/../lib/gcc/arm-none-eabi/10.3.1/../../../../arm-none-eabi/lib/thumb/v7e-m/nofp/libnosys.a(getpid.o)
 .data          0x0000000000000000        0x0 /Applications/ARM/bin/../lib/gcc/arm-none-eabi/10.3.1/../../../../arm-none-eabi/lib/thumb/v7e-m/nofp/libnosys.a(getpid.o)
 .bss           0x0000000000000000        0x0 /Applications/ARM/bin/../lib/gcc/arm-none-eabi/10.3.1/../../../../arm-none-eabi/lib/thumb/v7e-m/nofp/libnosys.a(getpid.o)
 .text          0x0000000000000000        0x0 /Applications/ARM/bin/../lib/gcc/arm-none-eabi/10.3.1/../../../../arm-none-eabi/lib/thumb/v7e-m/nofp/libnosys.a(isatty.o)
 .data          0x0000000000000000        0x0 /Applications/ARM/bin/../lib/gcc/arm-none-eabi/10.3.1/../../../../arm-none-eabi/lib/thumb/v7e-m/nofp/libnosys.a(isatty.o)
 .bss           0x0000000000000000        0x0 /Applications/ARM/bin/../lib/gcc/arm-none-eabi/10.3.1/../../../../arm-none-eabi/lib/thumb/v7e-m/nofp/libnosys.a(isatty.o)
 .text          0x0000000000000000        0x0 /Applications/ARM/bin/../lib/gcc/arm-none-eabi/10.3.1/../../../../arm-none-eabi/lib/thumb/v7e-m/nofp/libnosys.a(kill.o)
 .data          0x0000000000000000        0x0 /Applications/ARM/bin/../lib/gcc/arm-none-eabi/10.3.1/../../../../arm-none-eabi/lib/thumb/v7e-m/nofp/libnosys.a(kill.o)
 .bss           0x0000000000000000        0x0 /Applications/ARM/bin/../lib/gcc/arm-none-eabi/10.3.1/../../../../arm-none-eabi/lib/thumb/v7e-m/nofp/libnosys.a(kill.o)
 .text          0x0000000000000000        0x0 /Applications/ARM/bin/../lib/gcc/arm-none-eabi/10.3.1/../../../../arm-none-eabi/lib/thumb/v7e-m/nofp/libnosys.a(lseek.o)
 .data          0x0000000000000000        0x0 /Applications/ARM/bin/../lib/gcc/arm-none-eabi/10.3.1/../../../../arm-none-eabi/lib/thumb/v7e-m/nofp/libnosys.a(lseek.o)
 .bss           0x0000000000000000        0x0 /Applications/ARM/bin/../lib/gcc/arm-none-eabi/10.3.1/../../../../arm-none-eabi/lib/thumb/v7e-m/nofp/libnosys.a(lseek.o)
 .text          0x0000000000000000        0x0 /Applications/ARM/bin/../lib/gcc/arm-none-eabi/10.3.1/../../../../arm-none-eabi/lib/thumb/v7e-m/nofp/libnosys.a(read.o)
 .data          0x0000000000000000        0x0 /Applications/ARM/bin/../lib/gcc/arm-none-eabi/10.3.1/../../../../arm-none-eabi/lib/thumb/v7e-m/nofp/libnosys.a(read.o)
 .bss           0x0000000000000000        0x0 /Applications/ARM/bin/../lib/gcc/arm-none-eabi/10.3.1/../../../../arm-none-eabi/lib/thumb/v7e-m/nofp/libnosys.a(read.o)
 .text          0x0000000000000000        0x0 /Applications/ARM/bin/../lib/gcc/arm-none-eabi/10.3.1/../../../../arm-none-eabi/lib/thumb/v7e-m/nofp/libnosys.a(write.o)
 .data          0x0000000000000000        0x0 /Applications/ARM/bin/../lib/gcc/arm-none-eabi/10.3.1/../../../../arm-none-eabi/lib/thumb/v7e-m/nofp/libnosys.a(write.o)
 .bss           0x0000000000000000        0x0 /Applications/ARM/bin/../lib/gcc/arm-none-eabi/10.3.1/../../../../arm-none-eabi/lib/thumb/v7e-m/nofp/libnosys.a(write.o)
 .text          0x0000000000000000        0x0 /Applications/ARM/bin/../lib/gcc/arm-none-eabi/10.3.1/../../../../arm-none-eabi/lib/thumb/v7e-m/nofp/libnosys.a(_exit.o)
 .data          0x0000000000000000        0x0 /Applications/ARM/bin/../lib/gcc/arm-none-eabi/10.3.1/../../../../arm-none-eabi/lib/thumb/v7e-m/nofp/libnosys.a(_exit.o)
 .bss           0x0000000000000000        0x0 /Applications/ARM/bin/../lib/gcc/arm-none-eabi/10.3.1/../../../../arm-none-eabi/lib/thumb/v7e-m/nofp/libnosys.a(_exit.o)

Memory Configuration

Name             Origin             Length             Attributes
SRAM             0x0000000020000000 0x0000000000040000 xrw
*default*        0x0000000000000000 0xffffffffffffffff

Linker script and memory map

                0x0000000000004000                BOOTLOADER_SIZE = 0x4000

.bootloader     0x0000000020000000     0x4000
                0x0000000020000000                _heap2 = .
                0x0000000020004000                . = (. + BOOTLOADER_SIZE)
 *fill*         0x0000000020000000     0x4000 
                0x0000000020004000                . = ALIGN (0x8)
                0x0000000020004000                _eheap2 = .

.text           0x0000000020004000     0xa478
                0x0000000020004000                _text = .
 *(.intvecs)
 .intvecs       0x0000000020004000      0x400 obj//Release/startup_gcc.o
                0x0000000020004000                g_pfnVectors
 *(.text*)
 .text.startup.main
                0x0000000020004400       0xcc obj//Release/main.o
                0x0000000020004400                main
 .text.PinMuxConfig
                0x00000000200044cc       0x28 obj//Release/pinmux.o
                0x00000000200044cc                PinMuxConfig
 .text.atolong  0x00000000200044f4       0x30 obj//Release/conversions.o
                0x00000000200044f4                atolong
 .text.htoa     0x0000000020004524       0x64 obj//Release/conversions.o
                0x0000000020004524                htoa
 .text.btoa     0x0000000020004588       0x58 obj//Release/conversions.o
                0x0000000020004588                btoa
 .text.ParseWlanConnectString
                0x00000000200045e0       0xf0 obj//Release/serial_wifi.o
                0x00000000200045e0                ParseWlanConnectString
 .text.ParsemDNSString
                0x00000000200046d0       0x44 obj//Release/serial_wifi.o
                0x00000000200046d0                ParsemDNSString
 .text.ParsePingString
                0x0000000020004714      0x164 obj//Release/serial_wifi.o
                0x0000000020004714                ParsePingString
 .text.ParseRecvString
                0x0000000020004878      0x170 obj//Release/serial_wifi.o
                0x0000000020004878                ParseRecvString
 .text.ParseSendString
                0x00000000200049e8       0xdc obj//Release/serial_wifi.o
                0x00000000200049e8                ParseSendString
 .text.ParseConnectString
                0x0000000020004ac4      0x234 obj//Release/serial_wifi.o
                0x0000000020004ac4                ParseConnectString
 .text.ExecuteCommand
                0x0000000020004cf8      0x5c8 obj//Release/serial_wifi.o
                0x0000000020004cf8                ExecuteCommand
 .text.StartUdpServer
                0x00000000200052c0      0x10c obj//Release/serial_wifi.o
                0x00000000200052c0                StartUdpServer
 .text.StartTcpServer
                0x00000000200053cc      0x15c obj//Release/serial_wifi.o
                0x00000000200053cc                StartTcpServer
 .text.StartInterpreterMode
                0x0000000020005528       0x60 obj//Release/serial_wifi.o
                0x0000000020005528                StartInterpreterMode
 .text.InitialiseCmdMenu
                0x0000000020005588       0xb4 obj//Release/serial_wifi.o
                0x0000000020005588                InitialiseCmdMenu
 .text.InitialConfiguration
                0x000000002000563c      0x170 obj//Release/serial_wifi.o
                0x000000002000563c                InitialConfiguration
 .text.Interpreter_Task
                0x00000000200057ac      0xb1c obj//Release/serial_wifi.o
                0x00000000200057ac                Interpreter_Task
 .text.PrintCommandMenu
                0x00000000200062c8      0x188 obj//Release/uart_config.o
                0x00000000200062c8                PrintCommandMenu
 .text.GETChar  0x0000000020006450       0xd4 obj//Release/uart_config.o
                0x0000000020006450                GETChar
 .text.basic_Interpreter
                0x0000000020006524       0x38 obj//Release/uart_config.o
                0x0000000020006524                basic_Interpreter
 .text.vApplicationIdleHook
                0x000000002000655c        0x2 obj//Release/network_if.o
                0x000000002000655c                vApplicationIdleHook
 .text.vApplicationMallocFailedHook
                0x000000002000655e        0x2 obj//Release/network_if.o
                0x000000002000655e                vApplicationMallocFailedHook
 .text.vApplicationStackOverflowHook
                0x0000000020006560        0x2 obj//Release/network_if.o
                0x0000000020006560                vApplicationStackOverflowHook
 *fill*         0x0000000020006562        0x2 
 .text.SimpleLinkWlanEventHandler
                0x0000000020006564      0x138 obj//Release/network_if.o
                0x0000000020006564                SimpleLinkWlanEventHandler
 .text.SimpleLinkNetAppEventHandler
                0x000000002000669c       0x70 obj//Release/network_if.o
                0x000000002000669c                SimpleLinkNetAppEventHandler
 .text.SimpleLinkGeneralEventHandler
                0x000000002000670c       0x14 obj//Release/network_if.o
                0x000000002000670c                SimpleLinkGeneralEventHandler
 .text.SimpleLinkSockEventHandler
                0x0000000020006720       0x68 obj//Release/network_if.o
                0x0000000020006720                SimpleLinkSockEventHandler
 .text.SimpleLinkHttpServerCallback
                0x0000000020006788        0x2 obj//Release/network_if.o
                0x0000000020006788                SimpleLinkHttpServerCallback
 *fill*         0x000000002000678a        0x2 
 .text.InitializeAppVariables
                0x000000002000678c       0x38 obj//Release/network_if.o
                0x000000002000678c                InitializeAppVariables
 .text.Message.part.0
                0x00000000200067c4       0x20 obj//Release/uart_if.o
 .text.InitTerm
                0x00000000200067e4       0x30 obj//Release/uart_if.o
                0x00000000200067e4                InitTerm
 .text.Message  0x0000000020006814        0x8 obj//Release/uart_if.o
                0x0000000020006814                Message
 .text.ClearTerm
                0x000000002000681c        0xc obj//Release/uart_if.o
                0x000000002000681c                ClearTerm
 .text.Report   0x0000000020006828       0x68 obj//Release/uart_if.o
                0x0000000020006828                Report
 .text.NmiSR    0x0000000020006890        0x2 obj//Release/startup_gcc.o
 .text.FaultISR
                0x0000000020006892        0x2 obj//Release/startup_gcc.o
 .text.BusFaultHandler
                0x0000000020006894        0x2 obj//Release/startup_gcc.o
 .text.IntDefaultHandler
                0x0000000020006896        0x2 obj//Release/startup_gcc.o
 .text.ResetISR
                0x0000000020006898       0x4c obj//Release/startup_gcc.o
                0x0000000020006898                ResetISR
 .text._sbrk    0x00000000200068e4       0x28 obj//Release/startup_gcc.o
                0x00000000200068e4                _sbrk
 .text.sl_Start
                0x000000002000690c       0xd0 ../../../simplelink/gcc/lib/os/Release/libsimplelink.a(device.o)
                0x000000002000690c                sl_Start
 .text._sl_HandleAsync_InitComplete
                0x00000000200069dc       0x6c ../../../simplelink/gcc/lib/os/Release/libsimplelink.a(device.o)
                0x00000000200069dc                _sl_HandleAsync_InitComplete
 .text._sl_HandleAsync_Stop
                0x0000000020006a48       0x38 ../../../simplelink/gcc/lib/os/Release/libsimplelink.a(device.o)
                0x0000000020006a48                _sl_HandleAsync_Stop
 .text.sl_Stop  0x0000000020006a80       0xa8 ../../../simplelink/gcc/lib/os/Release/libsimplelink.a(device.o)
                0x0000000020006a80                sl_Stop
 .text.sl_DevGet
                0x0000000020006b28       0x88 ../../../simplelink/gcc/lib/os/Release/libsimplelink.a(device.o)
                0x0000000020006b28                sl_DevGet
 .text.sl_DevSet
                0x0000000020006bb0       0x60 ../../../simplelink/gcc/lib/os/Release/libsimplelink.a(device.o)
                0x0000000020006bb0                sl_DevSet
 .text._SlDrvDeviceEventHandler
                0x0000000020006c10       0x5e ../../../simplelink/gcc/lib/os/Release/libsimplelink.a(device.o)
                0x0000000020006c10                _SlDrvDeviceEventHandler
 *fill*         0x0000000020006c6e        0x2 
 .text._SlAsyncEventGenericHandler
                0x0000000020006c70       0x54 ../../../simplelink/gcc/lib/os/Release/libsimplelink.a(driver.o)
 .text._SlRemoveFromList
                0x0000000020006cc4       0x40 ../../../simplelink/gcc/lib/os/Release/libsimplelink.a(driver.o)
 .text._SlFindAndSetActiveObj
                0x0000000020006d04       0x98 ../../../simplelink/gcc/lib/os/Release/libsimplelink.a(driver.o)
 .text._SlDrvHandleWlanEvents
                0x0000000020006d9c       0x16 ../../../simplelink/gcc/lib/os/Release/libsimplelink.a(driver.o)
                0x0000000020006d9c                _SlDrvHandleWlanEvents
 .text._SlDrvHandleNetAppEvents
                0x0000000020006db2       0x16 ../../../simplelink/gcc/lib/os/Release/libsimplelink.a(driver.o)
                0x0000000020006db2                _SlDrvHandleNetAppEvents
 .text._SlDrvObjGlobalLockWaitForever
                0x0000000020006dc8       0x2c ../../../simplelink/gcc/lib/os/Release/libsimplelink.a(driver.o)
 .text._SlDrvMsgWrite
                0x0000000020006df4       0xf4 ../../../simplelink/gcc/lib/os/Release/libsimplelink.a(driver.o)
 .text._SlDrvHandleHttpServerEvents
                0x0000000020006ee8       0x1a ../../../simplelink/gcc/lib/os/Release/libsimplelink.a(driver.o)
                0x0000000020006ee8                _SlDrvHandleHttpServerEvents
 *fill*         0x0000000020006f02        0x2 
 .text._SlDrvDriverCBDeinit
                0x0000000020006f04       0x90 ../../../simplelink/gcc/lib/os/Release/libsimplelink.a(driver.o)
                0x0000000020006f04                _SlDrvDriverCBDeinit
 .text._SlDrvRxIrqHandler
                0x0000000020006f94       0x40 ../../../simplelink/gcc/lib/os/Release/libsimplelink.a(driver.o)
                0x0000000020006f94                _SlDrvRxIrqHandler
 .text._SlDrvCmdSend
                0x0000000020006fd4       0x78 ../../../simplelink/gcc/lib/os/Release/libsimplelink.a(driver.o)
                0x0000000020006fd4                _SlDrvCmdSend
 .text._SlDrvDispatchHttpServerEvents
                0x000000002000704c        0x4 ../../../simplelink/gcc/lib/os/Release/libsimplelink.a(driver.o)
                0x000000002000704c                _SlDrvDispatchHttpServerEvents
 .text._SlDrvSyncObjSignal
                0x0000000020007050        0xa ../../../simplelink/gcc/lib/os/Release/libsimplelink.a(driver.o)
                0x0000000020007050                _SlDrvSyncObjSignal
 .text._SlDrvObjLockWaitForever
                0x000000002000705a        0xe ../../../simplelink/gcc/lib/os/Release/libsimplelink.a(driver.o)
                0x000000002000705a                _SlDrvObjLockWaitForever
 .text._SlDrvProtectionObjLockWaitForever
                0x0000000020007068       0x18 ../../../simplelink/gcc/lib/os/Release/libsimplelink.a(driver.o)
                0x0000000020007068                _SlDrvProtectionObjLockWaitForever
 .text._SlDrvObjUnLock
                0x0000000020007080        0xa ../../../simplelink/gcc/lib/os/Release/libsimplelink.a(driver.o)
                0x0000000020007080                _SlDrvObjUnLock
 *fill*         0x000000002000708a        0x2 
 .text._SlDrvProtectionObjUnLock
                0x000000002000708c       0x14 ../../../simplelink/gcc/lib/os/Release/libsimplelink.a(driver.o)
                0x000000002000708c                _SlDrvProtectionObjUnLock
 .text._SlDrvReleasePoolObj
                0x00000000200070a0       0xc0 ../../../simplelink/gcc/lib/os/Release/libsimplelink.a(driver.o)
                0x00000000200070a0                _SlDrvReleasePoolObj
 .text._SlDrvGlobalObjUnLock
                0x0000000020007160       0x14 ../../../simplelink/gcc/lib/os/Release/libsimplelink.a(driver.o)
                0x0000000020007160                _SlDrvGlobalObjUnLock
 .text._SlDrvMemZero
                0x0000000020007174        0x8 ../../../simplelink/gcc/lib/os/Release/libsimplelink.a(driver.o)
                0x0000000020007174                _SlDrvMemZero
 .text._SlDrvDriverCBInit
                0x000000002000717c       0xdc ../../../simplelink/gcc/lib/os/Release/libsimplelink.a(driver.o)
                0x000000002000717c                _SlDrvDriverCBInit
 .text._SlDrvResetCmdExt
                0x0000000020007258        0x6 ../../../simplelink/gcc/lib/os/Release/libsimplelink.a(driver.o)
                0x0000000020007258                _SlDrvResetCmdExt
 *fill*         0x000000002000725e        0x2 
 .text._SlDrvSyncObjWaitForever
                0x0000000020007260       0x20 ../../../simplelink/gcc/lib/os/Release/libsimplelink.a(driver.o)
                0x0000000020007260                _SlDrvSyncObjWaitForever
 .text._SlDrvDataWriteOp
                0x0000000020007280       0xd8 ../../../simplelink/gcc/lib/os/Release/libsimplelink.a(driver.o)
                0x0000000020007280                _SlDrvDataWriteOp
 .text._SlDrvWaitForPoolObj
                0x0000000020007358       0xb8 ../../../simplelink/gcc/lib/os/Release/libsimplelink.a(driver.o)
                0x0000000020007358                _SlDrvWaitForPoolObj
 .text._SlDrvProtectAsyncRespSetting
                0x0000000020007410       0x30 ../../../simplelink/gcc/lib/os/Release/libsimplelink.a(driver.o)
                0x0000000020007410                _SlDrvProtectAsyncRespSetting
 .text._SlDriverHandleError
                0x0000000020007440       0x58 ../../../simplelink/gcc/lib/os/Release/libsimplelink.a(driver.o)
                0x0000000020007440                _SlDriverHandleError
 .text._SlDrvSyncObjWaitTimeout
                0x0000000020007498       0x30 ../../../simplelink/gcc/lib/os/Release/libsimplelink.a(driver.o)
                0x0000000020007498                _SlDrvSyncObjWaitTimeout
 .text._SlDrvDataReadOp
                0x00000000200074c8      0x130 ../../../simplelink/gcc/lib/os/Release/libsimplelink.a(driver.o)
                0x00000000200074c8                _SlDrvDataReadOp
 .text._SlDrvIsTimeoutExpired
                0x00000000200075f8       0x44 ../../../simplelink/gcc/lib/os/Release/libsimplelink.a(driver.o)
                0x00000000200075f8                _SlDrvIsTimeoutExpired
 .text._SlDrvMsgRead
                0x000000002000763c      0x4e0 ../../../simplelink/gcc/lib/os/Release/libsimplelink.a(driver.o)
 .text._SlDrvCmdOp
                0x0000000020007b1c      0x144 ../../../simplelink/gcc/lib/os/Release/libsimplelink.a(driver.o)
                0x0000000020007b1c                _SlDrvCmdOp
 .text._SlDrvBasicCmd
                0x0000000020007c60       0x2c ../../../simplelink/gcc/lib/os/Release/libsimplelink.a(driver.o)
                0x0000000020007c60                _SlDrvBasicCmd
 .text._SlDrvMsgReadSpawnCtx
                0x0000000020007c8c       0x7c ../../../simplelink/gcc/lib/os/Release/libsimplelink.a(driver.o)
                0x0000000020007c8c                _SlDrvMsgReadSpawnCtx
 .text.sl_NetAppMDNSRegisterUnregisterService
                0x0000000020007d08       0x9c ../../../simplelink/gcc/lib/os/Release/libsimplelink.a(netapp.o)
                0x0000000020007d08                sl_NetAppMDNSRegisterUnregisterService
 .text.sl_NetAppMDNSRegisterService
                0x0000000020007da4       0x38 ../../../simplelink/gcc/lib/os/Release/libsimplelink.a(netapp.o)
                0x0000000020007da4                sl_NetAppMDNSRegisterService
 .text.sl_NetAppMDNSUnRegisterService
                0x0000000020007ddc       0x34 ../../../simplelink/gcc/lib/os/Release/libsimplelink.a(netapp.o)
                0x0000000020007ddc                sl_NetAppMDNSUnRegisterService
 .text.sl_NetAppDnsGetHostByService
                0x0000000020007e10       0xc4 ../../../simplelink/gcc/lib/os/Release/libsimplelink.a(netapp.o)
                0x0000000020007e10                sl_NetAppDnsGetHostByService
 .text._sl_HandleAsync_DnsGetHostByService
                0x0000000020007ed4       0x5c ../../../simplelink/gcc/lib/os/Release/libsimplelink.a(netapp.o)
                0x0000000020007ed4                _sl_HandleAsync_DnsGetHostByService
 .text._sl_HandleAsync_DnsGetHostByName
                0x0000000020007f30       0x5c ../../../simplelink/gcc/lib/os/Release/libsimplelink.a(netapp.o)
                0x0000000020007f30                _sl_HandleAsync_DnsGetHostByName
 .text._sl_HandleAsync_PingResponse
                0x0000000020007f8c       0x7c ../../../simplelink/gcc/lib/os/Release/libsimplelink.a(netapp.o)
                0x0000000020007f8c                _sl_HandleAsync_PingResponse
 .text.sl_NetAppPingStart
                0x0000000020008008      0x14c ../../../simplelink/gcc/lib/os/Release/libsimplelink.a(netapp.o)
                0x0000000020008008                sl_NetAppPingStart
 .text._sl_NetAppSendTokenValue
                0x0000000020008154       0x50 ../../../simplelink/gcc/lib/os/Release/libsimplelink.a(netapp.o)
                0x0000000020008154                _sl_NetAppSendTokenValue
 .text._SlDrvNetAppEventHandler
                0x00000000200081a4       0xd0 ../../../simplelink/gcc/lib/os/Release/libsimplelink.a(netapp.o)
                0x00000000200081a4                _SlDrvNetAppEventHandler
 .text.sl_NetCfgSet
                0x0000000020008274       0x60 ../../../simplelink/gcc/lib/os/Release/libsimplelink.a(netcfg.o)
                0x0000000020008274                sl_NetCfgSet
 .text._sl_Strlen
                0x00000000200082d4       0x12 ../../../simplelink/gcc/lib/os/Release/libsimplelink.a(fs.o)
 *fill*         0x00000000200082e6        0x2 
 .text._sl_GetCreateFsMode
                0x00000000200082e8       0x5c ../../../simplelink/gcc/lib/os/Release/libsimplelink.a(fs.o)
                0x00000000200082e8                _sl_GetCreateFsMode
 .text.sl_FsOpen
                0x0000000020008344       0x78 ../../../simplelink/gcc/lib/os/Release/libsimplelink.a(fs.o)
                0x0000000020008344                sl_FsOpen
 .text.sl_FsClose
                0x00000000200083bc       0x80 ../../../simplelink/gcc/lib/os/Release/libsimplelink.a(fs.o)
                0x00000000200083bc                sl_FsClose
 .text.sl_FsRead
                0x000000002000843c       0xa8 ../../../simplelink/gcc/lib/os/Release/libsimplelink.a(fs.o)
                0x000000002000843c                sl_FsRead
 .text.sl_FsWrite
                0x00000000200084e4       0xa8 ../../../simplelink/gcc/lib/os/Release/libsimplelink.a(fs.o)
                0x00000000200084e4                sl_FsWrite
 .text._sl_TruncatePayloadByProtocol
                0x000000002000858c       0x18 ../../../simplelink/gcc/lib/os/Release/libsimplelink.a(socket.o)
 .text._sl_BuildAddress
                0x00000000200085a4       0x24 ../../../simplelink/gcc/lib/os/Release/libsimplelink.a(socket.o)
 .text.sl_Socket
                0x00000000200085c8       0x50 ../../../simplelink/gcc/lib/os/Release/libsimplelink.a(socket.o)
                0x00000000200085c8                sl_Socket
 .text.sl_Close
                0x0000000020008618       0x40 ../../../simplelink/gcc/lib/os/Release/libsimplelink.a(socket.o)
                0x0000000020008618                sl_Close
 .text.sl_Bind  0x0000000020008658       0x74 ../../../simplelink/gcc/lib/os/Release/libsimplelink.a(socket.o)
                0x0000000020008658                sl_Bind
 .text.sl_SendTo
                0x00000000200086cc       0xd4 ../../../simplelink/gcc/lib/os/Release/libsimplelink.a(socket.o)
                0x00000000200086cc                sl_SendTo
 .text.sl_RecvFrom
                0x00000000200087a0       0xc8 ../../../simplelink/gcc/lib/os/Release/libsimplelink.a(socket.o)
                0x00000000200087a0                sl_RecvFrom
 .text.sl_Connect
                0x0000000020008868       0xf0 ../../../simplelink/gcc/lib/os/Release/libsimplelink.a(socket.o)
                0x0000000020008868                sl_Connect
 .text._sl_HandleAsync_Connect
                0x0000000020008958       0x48 ../../../simplelink/gcc/lib/os/Release/libsimplelink.a(socket.o)
                0x0000000020008958                _sl_HandleAsync_Connect
 .text.sl_Send  0x00000000200089a0       0xc8 ../../../simplelink/gcc/lib/os/Release/libsimplelink.a(socket.o)
                0x00000000200089a0                sl_Send
 .text.sl_Listen
                0x0000000020008a68       0x44 ../../../simplelink/gcc/lib/os/Release/libsimplelink.a(socket.o)
                0x0000000020008a68                sl_Listen
 .text.sl_Accept
                0x0000000020008aac      0x114 ../../../simplelink/gcc/lib/os/Release/libsimplelink.a(socket.o)
                0x0000000020008aac                sl_Accept
 .text.sl_Htonl
                0x0000000020008bc0        0x8 ../../../simplelink/gcc/lib/os/Release/libsimplelink.a(socket.o)
                0x0000000020008bc0                sl_Htonl
 .text._sl_HandleAsync_Accept
                0x0000000020008bc8       0x50 ../../../simplelink/gcc/lib/os/Release/libsimplelink.a(socket.o)
                0x0000000020008bc8                _sl_HandleAsync_Accept
 .text._sl_HandleAsync_Select
                0x0000000020008c18       0x3c ../../../simplelink/gcc/lib/os/Release/libsimplelink.a(socket.o)
                0x0000000020008c18                _sl_HandleAsync_Select
 .text.sl_Recv  0x0000000020008c54       0x60 ../../../simplelink/gcc/lib/os/Release/libsimplelink.a(socket.o)
                0x0000000020008c54                sl_Recv
 .text.sl_SetSockOpt
                0x0000000020008cb4       0x68 ../../../simplelink/gcc/lib/os/Release/libsimplelink.a(socket.o)
                0x0000000020008cb4                sl_SetSockOpt
 .text.sl_GetSockOpt
                0x0000000020008d1c       0x90 ../../../simplelink/gcc/lib/os/Release/libsimplelink.a(socket.o)
                0x0000000020008d1c                sl_GetSockOpt
 .text.sl_Select
                0x0000000020008dac       0xf0 ../../../simplelink/gcc/lib/os/Release/libsimplelink.a(socket.o)
                0x0000000020008dac                sl_Select
 .text.SL_FD_SET
                0x0000000020008e9c       0x12 ../../../simplelink/gcc/lib/os/Release/libsimplelink.a(socket.o)
                0x0000000020008e9c                SL_FD_SET
 .text.SL_FD_ZERO
                0x0000000020008eae        0x6 ../../../simplelink/gcc/lib/os/Release/libsimplelink.a(socket.o)
                0x0000000020008eae                SL_FD_ZERO
 .text.sl_WlanConnect
                0x0000000020008eb4      0x1c4 ../../../simplelink/gcc/lib/os/Release/libsimplelink.a(wlan.o)
                0x0000000020008eb4                sl_WlanConnect
 .text.sl_WlanDisconnect
                0x0000000020009078       0x28 ../../../simplelink/gcc/lib/os/Release/libsimplelink.a(wlan.o)
                0x0000000020009078                sl_WlanDisconnect
 .text.sl_WlanPolicySet
                0x00000000200090a0       0x5c ../../../simplelink/gcc/lib/os/Release/libsimplelink.a(wlan.o)
                0x00000000200090a0                sl_WlanPolicySet
 .text.sl_WlanProfileAdd
                0x00000000200090fc      0x1c8 ../../../simplelink/gcc/lib/os/Release/libsimplelink.a(wlan.o)
                0x00000000200090fc                sl_WlanProfileAdd
 .text.sl_WlanSetMode
                0x00000000200092c4       0x40 ../../../simplelink/gcc/lib/os/Release/libsimplelink.a(wlan.o)
                0x00000000200092c4                sl_WlanSetMode
 .text.sl_WlanSet
                0x0000000020009304       0x60 ../../../simplelink/gcc/lib/os/Release/libsimplelink.a(wlan.o)
                0x0000000020009304                sl_WlanSet
 .text.DmaSpiSwIntHandler
                0x0000000020009364       0x38 ../../../simplelink/gcc/lib/os/Release/libsimplelink.a(cc_pal.o)
                0x0000000020009364                DmaSpiSwIntHandler
 .text.cc_UDMAChannelSelect.part.0
                0x000000002000939c       0x1e ../../../simplelink/gcc/lib/os/Release/libsimplelink.a(cc_pal.o)
 .text.cc_SetupTransfer.constprop.0
                0x00000000200093ba       0x4e ../../../simplelink/gcc/lib/os/Release/libsimplelink.a(cc_pal.o)
 .text.SetupDMAReceive
                0x0000000020009408       0x60 ../../../simplelink/gcc/lib/os/Release/libsimplelink.a(cc_pal.o)
 .text.spi_Open
                0x0000000020009468      0x144 ../../../simplelink/gcc/lib/os/Release/libsimplelink.a(cc_pal.o)
                0x0000000020009468                spi_Open
 .text.spi_Close
                0x00000000200095ac       0x88 ../../../simplelink/gcc/lib/os/Release/libsimplelink.a(cc_pal.o)
                0x00000000200095ac                spi_Close
 .text.spi_Read
                0x0000000020009634       0xf4 ../../../simplelink/gcc/lib/os/Release/libsimplelink.a(cc_pal.o)
                0x0000000020009634                spi_Read
 .text.spi_Write
                0x0000000020009728       0xec ../../../simplelink/gcc/lib/os/Release/libsimplelink.a(cc_pal.o)
                0x0000000020009728                spi_Write
 .text.NwpRegisterInterruptHandler
                0x0000000020009814       0x28 ../../../simplelink/gcc/lib/os/Release/libsimplelink.a(cc_pal.o)
                0x0000000020009814                NwpRegisterInterruptHandler
 .text.NwpMaskInterrupt
                0x000000002000983c       0x10 ../../../simplelink/gcc/lib/os/Release/libsimplelink.a(cc_pal.o)
                0x000000002000983c                NwpMaskInterrupt
 .text.NwpUnMaskInterrupt
                0x000000002000984c       0x10 ../../../simplelink/gcc/lib/os/Release/libsimplelink.a(cc_pal.o)
                0x000000002000984c                NwpUnMaskInterrupt
 .text.NwpPowerOn
                0x000000002000985c       0x3c ../../../simplelink/gcc/lib/os/Release/libsimplelink.a(cc_pal.o)
                0x000000002000985c                NwpPowerOn
 .text.NwpPowerOff
                0x0000000020009898       0x44 ../../../simplelink/gcc/lib/os/Release/libsimplelink.a(cc_pal.o)
                0x0000000020009898                NwpPowerOff
 .text.NwpPowerOnPreamble
                0x00000000200098dc       0x60 ../../../simplelink/gcc/lib/os/Release/libsimplelink.a(cc_pal.o)
                0x00000000200098dc                NwpPowerOnPreamble
 .text.NwpPrePowerOffTimout0
                0x000000002000993c       0x1c ../../../simplelink/gcc/lib/os/Release/libsimplelink.a(cc_pal.o)
                0x000000002000993c                NwpPrePowerOffTimout0
 .text.simplelink_timerA2_start
                0x0000000020009958       0x50 ../../../simplelink/gcc/lib/os/Release/libsimplelink.a(cc_pal.o)
                0x0000000020009958                simplelink_timerA2_start
 .text.TimerGetCurrentTimestamp
                0x00000000200099a8       0x24 ../../../simplelink/gcc/lib/os/Release/libsimplelink.a(cc_pal.o)
                0x00000000200099a8                TimerGetCurrentTimestamp
 .text.vSimpleLinkSpawnTask
                0x00000000200099cc       0x20 ../../../oslib/gcc/free_rtos/Release/free_rtos.a(osi_freertos.o)
 .text.osi_InterruptRegister
                0x00000000200099ec       0x26 ../../../oslib/gcc/free_rtos/Release/free_rtos.a(osi_freertos.o)
                0x00000000200099ec                osi_InterruptRegister
 .text.osi_InterruptDeRegister
                0x0000000020009a12       0x18 ../../../oslib/gcc/free_rtos/Release/free_rtos.a(osi_freertos.o)
                0x0000000020009a12                osi_InterruptDeRegister
 .text.osi_SyncObjCreate
                0x0000000020009a2a       0x24 ../../../oslib/gcc/free_rtos/Release/free_rtos.a(osi_freertos.o)
                0x0000000020009a2a                osi_SyncObjCreate
 .text.osi_SyncObjDelete
                0x0000000020009a4e       0x14 ../../../oslib/gcc/free_rtos/Release/free_rtos.a(osi_freertos.o)
                0x0000000020009a4e                osi_SyncObjDelete
 .text.osi_SyncObjSignal
                0x0000000020009a62       0x1a ../../../oslib/gcc/free_rtos/Release/free_rtos.a(osi_freertos.o)
                0x0000000020009a62                osi_SyncObjSignal
 .text.osi_SyncObjSignalFromISR
                0x0000000020009a7c       0x3c ../../../oslib/gcc/free_rtos/Release/free_rtos.a(osi_freertos.o)
                0x0000000020009a7c                osi_SyncObjSignalFromISR
 .text.osi_SyncObjWait
                0x0000000020009ab8       0x1c ../../../oslib/gcc/free_rtos/Release/free_rtos.a(osi_freertos.o)
                0x0000000020009ab8                osi_SyncObjWait
 .text.osi_LockObjCreate
                0x0000000020009ad4       0x18 ../../../oslib/gcc/free_rtos/Release/free_rtos.a(osi_freertos.o)
                0x0000000020009ad4                osi_LockObjCreate
 .text.osi_TaskCreate
                0x0000000020009aec       0x1e ../../../oslib/gcc/free_rtos/Release/free_rtos.a(osi_freertos.o)
                0x0000000020009aec                osi_TaskCreate
 .text.osi_LockObjDelete
                0x0000000020009b0a        0xc ../../../oslib/gcc/free_rtos/Release/free_rtos.a(osi_freertos.o)
                0x0000000020009b0a                osi_LockObjDelete
 .text.osi_LockObjLock
                0x0000000020009b16        0x4 ../../../oslib/gcc/free_rtos/Release/free_rtos.a(osi_freertos.o)
                0x0000000020009b16                osi_LockObjLock
 .text.osi_LockObjUnlock
                0x0000000020009b1a       0x22 ../../../oslib/gcc/free_rtos/Release/free_rtos.a(osi_freertos.o)
                0x0000000020009b1a                osi_LockObjUnlock
 .text.osi_Spawn
                0x0000000020009b3c       0x4c ../../../oslib/gcc/free_rtos/Release/free_rtos.a(osi_freertos.o)
                0x0000000020009b3c                osi_Spawn
 .text.VStartSimpleLinkSpawnTask
                0x0000000020009b88       0x48 ../../../oslib/gcc/free_rtos/Release/free_rtos.a(osi_freertos.o)
                0x0000000020009b88                VStartSimpleLinkSpawnTask
 .text.osi_MsgQCreate
                0x0000000020009bd0       0x24 ../../../oslib/gcc/free_rtos/Release/free_rtos.a(osi_freertos.o)
                0x0000000020009bd0                osi_MsgQCreate
 .text.osi_MsgQDelete
                0x0000000020009bf4        0x4 ../../../oslib/gcc/free_rtos/Release/free_rtos.a(osi_freertos.o)
                0x0000000020009bf4                osi_MsgQDelete
 .text.osi_MsgQWrite
                0x0000000020009bf8       0x3c ../../../oslib/gcc/free_rtos/Release/free_rtos.a(osi_freertos.o)
                0x0000000020009bf8                osi_MsgQWrite
 .text.osi_MsgQRead
                0x0000000020009c34       0x1c ../../../oslib/gcc/free_rtos/Release/free_rtos.a(osi_freertos.o)
                0x0000000020009c34                osi_MsgQRead
 .text.osi_start
                0x0000000020009c50        0x4 ../../../oslib/gcc/free_rtos/Release/free_rtos.a(osi_freertos.o)
                0x0000000020009c50                osi_start
 .text.osi_Sleep
                0x0000000020009c54        0x4 ../../../oslib/gcc/free_rtos/Release/free_rtos.a(osi_freertos.o)
                0x0000000020009c54                osi_Sleep
 .text.prvIsQueueEmpty
                0x0000000020009c58       0x16 ../../../oslib/gcc/free_rtos/Release/free_rtos.a(queue.o)
 .text.prvCopyDataToQueue
                0x0000000020009c6e       0x6a ../../../oslib/gcc/free_rtos/Release/free_rtos.a(queue.o)
 .text.prvNotifyQueueSetContainer
                0x0000000020009cd8       0x4a ../../../oslib/gcc/free_rtos/Release/free_rtos.a(queue.o)
 .text.prvCopyDataFromQueue
                0x0000000020009d22       0x28 ../../../oslib/gcc/free_rtos/Release/free_rtos.a(queue.o)
 .text.prvUnlockQueue
                0x0000000020009d4a       0x7e ../../../oslib/gcc/free_rtos/Release/free_rtos.a(queue.o)
 .text.xQueueGenericReset
                0x0000000020009dc8       0x6a ../../../oslib/gcc/free_rtos/Release/free_rtos.a(queue.o)
                0x0000000020009dc8                xQueueGenericReset
 .text.xQueueGenericCreate
                0x0000000020009e32       0x38 ../../../oslib/gcc/free_rtos/Release/free_rtos.a(queue.o)
                0x0000000020009e32                xQueueGenericCreate
 .text.xQueueGenericSend
                0x0000000020009e6a      0x114 ../../../oslib/gcc/free_rtos/Release/free_rtos.a(queue.o)
                0x0000000020009e6a                xQueueGenericSend
 .text.xQueueCreateMutex
                0x0000000020009f7e       0x24 ../../../oslib/gcc/free_rtos/Release/free_rtos.a(queue.o)
                0x0000000020009f7e                xQueueCreateMutex
 .text.xQueueGenericSendFromISR
                0x0000000020009fa2       0x80 ../../../oslib/gcc/free_rtos/Release/free_rtos.a(queue.o)
                0x0000000020009fa2                xQueueGenericSendFromISR
 .text.xQueueGiveFromISR
                0x000000002000a022       0x68 ../../../oslib/gcc/free_rtos/Release/free_rtos.a(queue.o)
                0x000000002000a022                xQueueGiveFromISR
 .text.xQueueReceive
                0x000000002000a08a       0xee ../../../oslib/gcc/free_rtos/Release/free_rtos.a(queue.o)
                0x000000002000a08a                xQueueReceive
 .text.xQueueSemaphoreTake
                0x000000002000a178      0x126 ../../../oslib/gcc/free_rtos/Release/free_rtos.a(queue.o)
                0x000000002000a178                xQueueSemaphoreTake
 *fill*         0x000000002000a29e        0x2 
 .text.vQueueUnregisterQueue
                0x000000002000a2a0       0x28 ../../../oslib/gcc/free_rtos/Release/free_rtos.a(queue.o)
                0x000000002000a2a0                vQueueUnregisterQueue
 .text.vQueueDelete
                0x000000002000a2c8       0x12 ../../../oslib/gcc/free_rtos/Release/free_rtos.a(queue.o)
                0x000000002000a2c8                vQueueDelete
 *fill*         0x000000002000a2da        0x2 
 .text.prvAddCurrentTaskToDelayedList
                0x000000002000a2dc       0x88 ../../../oslib/gcc/free_rtos/Release/free_rtos.a(tasks.o)
 .text.prvResetNextTaskUnblockTime
                0x000000002000a364       0x24 ../../../oslib/gcc/free_rtos/Release/free_rtos.a(tasks.o)
 .text.prvIdleTask
                0x000000002000a388       0x4c ../../../oslib/gcc/free_rtos/Release/free_rtos.a(tasks.o)
 .text.xTaskCreate
                0x000000002000a3d4      0x1ac ../../../oslib/gcc/free_rtos/Release/free_rtos.a(tasks.o)
                0x000000002000a3d4                xTaskCreate
 .text.vTaskStartScheduler
                0x000000002000a580       0x60 ../../../oslib/gcc/free_rtos/Release/free_rtos.a(tasks.o)
                0x000000002000a580                vTaskStartScheduler
 .text.vTaskSuspendAll
                0x000000002000a5e0       0x10 ../../../oslib/gcc/free_rtos/Release/free_rtos.a(tasks.o)
                0x000000002000a5e0                vTaskSuspendAll
 .text.xTaskIncrementTick
                0x000000002000a5f0      0x10c ../../../oslib/gcc/free_rtos/Release/free_rtos.a(tasks.o)
                0x000000002000a5f0                xTaskIncrementTick
 .text.xTaskResumeAll
                0x000000002000a6fc       0xd8 ../../../oslib/gcc/free_rtos/Release/free_rtos.a(tasks.o)
                0x000000002000a6fc                xTaskResumeAll
 .text.vTaskDelay
                0x000000002000a7d4       0x2e ../../../oslib/gcc/free_rtos/Release/free_rtos.a(tasks.o)
                0x000000002000a7d4                vTaskDelay
 *fill*         0x000000002000a802        0x2 
 .text.vTaskSwitchContext
                0x000000002000a804       0x74 ../../../oslib/gcc/free_rtos/Release/free_rtos.a(tasks.o)
                0x000000002000a804                vTaskSwitchContext
 .text.vTaskPlaceOnEventList
                0x000000002000a878       0x20 ../../../oslib/gcc/free_rtos/Release/free_rtos.a(tasks.o)
                0x000000002000a878                vTaskPlaceOnEventList
 .text.xTaskRemoveFromEventList
                0x000000002000a898       0x70 ../../../oslib/gcc/free_rtos/Release/free_rtos.a(tasks.o)
                0x000000002000a898                xTaskRemoveFromEventList
 .text.vTaskInternalSetTimeOutState
                0x000000002000a908       0x18 ../../../oslib/gcc/free_rtos/Release/free_rtos.a(tasks.o)
                0x000000002000a908                vTaskInternalSetTimeOutState
 .text.xTaskCheckForTimeOut
                0x000000002000a920       0x50 ../../../oslib/gcc/free_rtos/Release/free_rtos.a(tasks.o)
                0x000000002000a920                xTaskCheckForTimeOut
 .text.vTaskMissedYield
                0x000000002000a970        0xc ../../../oslib/gcc/free_rtos/Release/free_rtos.a(tasks.o)
                0x000000002000a970                vTaskMissedYield
 .text.xTaskPriorityInherit
                0x000000002000a97c       0xa4 ../../../oslib/gcc/free_rtos/Release/free_rtos.a(tasks.o)
                0x000000002000a97c                xTaskPriorityInherit
 .text.xTaskPriorityDisinherit
                0x000000002000aa20       0x70 ../../../oslib/gcc/free_rtos/Release/free_rtos.a(tasks.o)
                0x000000002000aa20                xTaskPriorityDisinherit
 .text.vTaskPriorityDisinheritAfterTimeout
                0x000000002000aa90       0x80 ../../../oslib/gcc/free_rtos/Release/free_rtos.a(tasks.o)
                0x000000002000aa90                vTaskPriorityDisinheritAfterTimeout
 .text.pvTaskIncrementMutexHeldCount
                0x000000002000ab10       0x18 ../../../oslib/gcc/free_rtos/Release/free_rtos.a(tasks.o)
                0x000000002000ab10                pvTaskIncrementMutexHeldCount
 .text.prvTaskExitError
                0x000000002000ab28       0x20 ../../../oslib/gcc/free_rtos/Release/free_rtos.a(port.o)
 .text.prvPortStartFirstTask
                0x000000002000ab48       0x20 ../../../oslib/gcc/free_rtos/Release/free_rtos.a(port.o)
 .text.pxPortInitialiseStack
                0x000000002000ab68       0x24 ../../../oslib/gcc/free_rtos/Release/free_rtos.a(port.o)
                0x000000002000ab68                pxPortInitialiseStack
 *fill*         0x000000002000ab8c        0x4 
 .text.vPortSVCHandler
                0x000000002000ab90       0x24 ../../../oslib/gcc/free_rtos/Release/free_rtos.a(port.o)
                0x000000002000ab90                vPortSVCHandler
 .text.vPortEnterCritical
                0x000000002000abb4       0x20 ../../../oslib/gcc/free_rtos/Release/free_rtos.a(port.o)
                0x000000002000abb4                vPortEnterCritical
 .text.vPortExitCritical
                0x000000002000abd4       0x14 ../../../oslib/gcc/free_rtos/Release/free_rtos.a(port.o)
                0x000000002000abd4                vPortExitCritical
 *fill*         0x000000002000abe8        0x8 
 .text.xPortPendSVHandler
                0x000000002000abf0       0x44 ../../../oslib/gcc/free_rtos/Release/free_rtos.a(port.o)
                0x000000002000abf0                xPortPendSVHandler
 .text.xPortSysTickHandler
                0x000000002000ac34       0x2c ../../../oslib/gcc/free_rtos/Release/free_rtos.a(port.o)
                0x000000002000ac34                xPortSysTickHandler
 .text.vPortSetupTimerInterrupt
                0x000000002000ac60       0x18 ../../../oslib/gcc/free_rtos/Release/free_rtos.a(port.o)
                0x000000002000ac60                vPortSetupTimerInterrupt
 .text.xPortStartScheduler
                0x000000002000ac78       0x3c ../../../oslib/gcc/free_rtos/Release/free_rtos.a(port.o)
                0x000000002000ac78                xPortStartScheduler
 .text.pvPortMalloc
                0x000000002000acb4       0x1e ../../../oslib/gcc/free_rtos/Release/free_rtos.a(heap_3.o)
                0x000000002000acb4                pvPortMalloc
 .text.vPortFree
                0x000000002000acd2       0x1a ../../../oslib/gcc/free_rtos/Release/free_rtos.a(heap_3.o)
                0x000000002000acd2                vPortFree
 .text.vListInitialise
                0x000000002000acec       0x16 ../../../oslib/gcc/free_rtos/Release/free_rtos.a(list.o)
                0x000000002000acec                vListInitialise
 .text.vListInitialiseItem
                0x000000002000ad02        0x6 ../../../oslib/gcc/free_rtos/Release/free_rtos.a(list.o)
                0x000000002000ad02                vListInitialiseItem
 .text.vListInsertEnd
                0x000000002000ad08       0x18 ../../../oslib/gcc/free_rtos/Release/free_rtos.a(list.o)
                0x000000002000ad08                vListInsertEnd
 .text.vListInsert
                0x000000002000ad20       0x2e ../../../oslib/gcc/free_rtos/Release/free_rtos.a(list.o)
                0x000000002000ad20                vListInsert
 .text.uxListRemove
                0x000000002000ad4e       0x20 ../../../oslib/gcc/free_rtos/Release/free_rtos.a(list.o)
                0x000000002000ad4e                uxListRemove
 *fill*         0x000000002000ad6e        0x2 
 .text.IntEnable
                0x000000002000ad70       0x74 ../../../driverlib/gcc/lib/Release/libdriver.a(interrupt.o)
                0x000000002000ad70                IntEnable
 .text.IntDisable
                0x000000002000ade4       0x74 ../../../driverlib/gcc/lib/Release/libdriver.a(interrupt.o)
                0x000000002000ade4                IntDisable
 .text.PRCMPeripheralReset.part.0
                0x000000002000ae58       0x3c ../../../driverlib/gcc/lib/Release/libdriver.a(prcm.o)
 .text.PRCMSysResetCauseGet
                0x000000002000ae94       0x2c ../../../driverlib/gcc/lib/Release/libdriver.a(prcm.o)
                0x000000002000ae94                PRCMSysResetCauseGet
 .text.PRCMPeripheralClkEnable
                0x000000002000aec0       0x2c ../../../driverlib/gcc/lib/Release/libdriver.a(prcm.o)
                0x000000002000aec0                PRCMPeripheralClkEnable
 .text.PRCMPeripheralClkDisable
                0x000000002000aeec       0x1c ../../../driverlib/gcc/lib/Release/libdriver.a(prcm.o)
                0x000000002000aeec                PRCMPeripheralClkDisable
 .text.PRCMPeripheralReset
                0x000000002000af08        0xa ../../../driverlib/gcc/lib/Release/libdriver.a(prcm.o)
                0x000000002000af08                PRCMPeripheralReset
 *fill*         0x000000002000af12        0x2 
 .text.PRCMPeripheralStatusGet
                0x000000002000af14       0x1c ../../../driverlib/gcc/lib/Release/libdriver.a(prcm.o)
                0x000000002000af14                PRCMPeripheralStatusGet
 .text.PRCMCC3200MCUInit
                0x000000002000af30      0x144 ../../../driverlib/gcc/lib/Release/libdriver.a(prcm.o)
                0x000000002000af30                PRCMCC3200MCUInit
 .text.SPIConfigSetExpClk
                0x000000002000b074       0x58 ../../../driverlib/gcc/lib/Release/libdriver.a(spi.o)
                0x000000002000b074                SPIConfigSetExpClk
 .text.SPIFIFODisable
                0x000000002000b0cc        0xe ../../../driverlib/gcc/lib/Release/libdriver.a(spi.o)
                0x000000002000b0cc                SPIFIFODisable
 .text.SPIDmaDisable
                0x000000002000b0da        0x4 ../../../driverlib/gcc/lib/Release/libdriver.a(spi.o)
                0x000000002000b0da                SPIDmaDisable
 *fill*         0x000000002000b0de        0x2 
 .text.TimerConfigure
                0x000000002000b0e0       0x28 ../../../driverlib/gcc/lib/Release/libdriver.a(timer.o)
                0x000000002000b0e0                TimerConfigure
 .text.UtilsDelay
                0x000000002000b108        0x8 ../../../driverlib/gcc/lib/Release/libdriver.a(utils.o)
                0x000000002000b108                UtilsDelay
 .text.malloc   0x000000002000b110       0x10 /Applications/ARM/bin/../lib/gcc/arm-none-eabi/10.3.1/../../../../arm-none-eabi/lib/thumb/v7e-m/nofp/libc_nano.a(lib_a-malloc.o)
                0x000000002000b110                malloc
 .text.free     0x000000002000b120       0x10 /Applications/ARM/bin/../lib/gcc/arm-none-eabi/10.3.1/../../../../arm-none-eabi/lib/thumb/v7e-m/nofp/libc_nano.a(lib_a-malloc.o)
                0x000000002000b120                free
 .text.memcpy   0x000000002000b130       0x1c /Applications/ARM/bin/../lib/gcc/arm-none-eabi/10.3.1/../../../../arm-none-eabi/lib/thumb/v7e-m/nofp/libc_nano.a(lib_a-memcpy-stub.o)
                0x000000002000b130                memcpy
 .text.memmove  0x000000002000b14c       0x34 /Applications/ARM/bin/../lib/gcc/arm-none-eabi/10.3.1/../../../../arm-none-eabi/lib/thumb/v7e-m/nofp/libc_nano.a(lib_a-memmove.o)
                0x000000002000b14c                memmove
 .text.memset   0x000000002000b180       0x10 /Applications/ARM/bin/../lib/gcc/arm-none-eabi/10.3.1/../../../../arm-none-eabi/lib/thumb/v7e-m/nofp/libc_nano.a(lib_a-memset.o)
                0x000000002000b180                memset
 .text._free_r  0x000000002000b190       0x94 /Applications/ARM/bin/../lib/gcc/arm-none-eabi/10.3.1/../../../../arm-none-eabi/lib/thumb/v7e-m/nofp/libc_nano.a(lib_a-nano-freer.o)
                0x000000002000b190                _free_r
 .text.sbrk_aligned
                0x000000002000b224       0x40 /Applications/ARM/bin/../lib/gcc/arm-none-eabi/10.3.1/../../../../arm-none-eabi/lib/thumb/v7e-m/nofp/libc_nano.a(lib_a-nano-mallocr.o)
 .text._malloc_r
                0x000000002000b264       0xe8 /Applications/ARM/bin/../lib/gcc/arm-none-eabi/10.3.1/../../../../arm-none-eabi/lib/thumb/v7e-m/nofp/libc_nano.a(lib_a-nano-mallocr.o)
                0x000000002000b264                _malloc_r
 .text.realloc  0x000000002000b34c       0x10 /Applications/ARM/bin/../lib/gcc/arm-none-eabi/10.3.1/../../../../arm-none-eabi/lib/thumb/v7e-m/nofp/libc_nano.a(lib_a-realloc.o)
                0x000000002000b34c                realloc
 .text._sbrk_r  0x000000002000b35c       0x20 /Applications/ARM/bin/../lib/gcc/arm-none-eabi/10.3.1/../../../../arm-none-eabi/lib/thumb/v7e-m/nofp/libc_nano.a(lib_a-sbrkr.o)
                0x000000002000b35c                _sbrk_r
 .text.strchr   0x000000002000b37c       0x1a /Applications/ARM/bin/../lib/gcc/arm-none-eabi/10.3.1/../../../../arm-none-eabi/lib/thumb/v7e-m/nofp/libc_nano.a(lib_a-strchr.o)
                0x000000002000b37c                strchr
 .text          0x000000002000b396       0x14 /Applications/ARM/bin/../lib/gcc/arm-none-eabi/10.3.1/../../../../arm-none-eabi/lib/thumb/v7e-m/nofp/libc_nano.a(lib_a-strcmp.o)
                0x000000002000b396                strcmp
 .text.strcpy   0x000000002000b3aa       0x10 /Applications/ARM/bin/../lib/gcc/arm-none-eabi/10.3.1/../../../../arm-none-eabi/lib/thumb/v7e-m/nofp/libc_nano.a(lib_a-strcpy.o)
                0x000000002000b3aa                strcpy
 .text          0x000000002000b3ba       0x10 /Applications/ARM/bin/../lib/gcc/arm-none-eabi/10.3.1/../../../../arm-none-eabi/lib/thumb/v7e-m/nofp/libc_nano.a(lib_a-strlen.o)
                0x000000002000b3ba                strlen
 .text.strncpy  0x000000002000b3ca       0x26 /Applications/ARM/bin/../lib/gcc/arm-none-eabi/10.3.1/../../../../arm-none-eabi/lib/thumb/v7e-m/nofp/libc_nano.a(lib_a-strncpy.o)
                0x000000002000b3ca                strncpy
 .text.strstr   0x000000002000b3f0       0x2c /Applications/ARM/bin/../lib/gcc/arm-none-eabi/10.3.1/../../../../arm-none-eabi/lib/thumb/v7e-m/nofp/libc_nano.a(lib_a-strstr.o)
                0x000000002000b3f0                strstr
 .text.strtok   0x000000002000b41c       0x68 /Applications/ARM/bin/../lib/gcc/arm-none-eabi/10.3.1/../../../../arm-none-eabi/lib/thumb/v7e-m/nofp/libc_nano.a(lib_a-strtok.o)
                0x000000002000b41c                strtok
 .text.__strtok_r
                0x000000002000b484       0x50 /Applications/ARM/bin/../lib/gcc/arm-none-eabi/10.3.1/../../../../arm-none-eabi/lib/thumb/v7e-m/nofp/libc_nano.a(lib_a-strtok_r.o)
                0x000000002000b484                __strtok_r
 .text._strtol_l.constprop.0
                0x000000002000b4d4       0xf8 /Applications/ARM/bin/../lib/gcc/arm-none-eabi/10.3.1/../../../../arm-none-eabi/lib/thumb/v7e-m/nofp/libc_nano.a(lib_a-strtol.o)
 .text.strtol   0x000000002000b5cc       0x14 /Applications/ARM/bin/../lib/gcc/arm-none-eabi/10.3.1/../../../../arm-none-eabi/lib/thumb/v7e-m/nofp/libc_nano.a(lib_a-strtol.o)
                0x000000002000b5cc                strtol
 .text._vsnprintf_r
                0x000000002000b5e0       0x56 /Applications/ARM/bin/../lib/gcc/arm-none-eabi/10.3.1/../../../../arm-none-eabi/lib/thumb/v7e-m/nofp/libc_nano.a(lib_a-vsnprintf.o)
                0x000000002000b5e0                _vsnprintf_r
                0x000000002000b5e0                _vsniprintf_r
 *fill*         0x000000002000b636        0x2 
 .text.vsnprintf
                0x000000002000b638       0x1c /Applications/ARM/bin/../lib/gcc/arm-none-eabi/10.3.1/../../../../arm-none-eabi/lib/thumb/v7e-m/nofp/libc_nano.a(lib_a-vsnprintf.o)
                0x000000002000b638                vsnprintf
                0x000000002000b638                vsniprintf
 .text.__assert_func
                0x000000002000b654       0x3c /Applications/ARM/bin/../lib/gcc/arm-none-eabi/10.3.1/../../../../arm-none-eabi/lib/thumb/v7e-m/nofp/libc_nano.a(lib_a-assert.o)
                0x000000002000b654                __assert_func
 .text.__errno  0x000000002000b690        0xc /Applications/ARM/bin/../lib/gcc/arm-none-eabi/10.3.1/../../../../arm-none-eabi/lib/thumb/v7e-m/nofp/libc_nano.a(lib_a-errno.o)
                0x000000002000b690                __errno
 .text.fprintf  0x000000002000b69c       0x24 /Applications/ARM/bin/../lib/gcc/arm-none-eabi/10.3.1/../../../../arm-none-eabi/lib/thumb/v7e-m/nofp/libc_nano.a(lib_a-fprintf.o)
                0x000000002000b69c                fprintf
                0x000000002000b69c                fiprintf
 .text.__malloc_lock
                0x000000002000b6c0        0xc /Applications/ARM/bin/../lib/gcc/arm-none-eabi/10.3.1/../../../../arm-none-eabi/lib/thumb/v7e-m/nofp/libc_nano.a(lib_a-mlock.o)
                0x000000002000b6c0                __malloc_lock
 .text.__malloc_unlock
                0x000000002000b6cc        0xc /Applications/ARM/bin/../lib/gcc/arm-none-eabi/10.3.1/../../../../arm-none-eabi/lib/thumb/v7e-m/nofp/libc_nano.a(lib_a-mlock.o)
                0x000000002000b6cc                __malloc_unlock
 .text._realloc_r
                0x000000002000b6d8       0x5e /Applications/ARM/bin/../lib/gcc/arm-none-eabi/10.3.1/../../../../arm-none-eabi/lib/thumb/v7e-m/nofp/libc_nano.a(lib_a-nano-reallocr.o)
                0x000000002000b6d8                _realloc_r
 .text.__ssputs_r
                0x000000002000b736       0xb6 /Applications/ARM/bin/../lib/gcc/arm-none-eabi/10.3.1/../../../../arm-none-eabi/lib/thumb/v7e-m/nofp/libc_nano.a(lib_a-nano-svfprintf.o)
                0x000000002000b736                __ssputs_r
 .text._svfprintf_r
                0x000000002000b7ec      0x200 /Applications/ARM/bin/../lib/gcc/arm-none-eabi/10.3.1/../../../../arm-none-eabi/lib/thumb/v7e-m/nofp/libc_nano.a(lib_a-nano-svfprintf.o)
                0x000000002000b7ec                _svfprintf_r
                0x000000002000b7ec                _svfiprintf_r
 .text.__sfputc_r
                0x000000002000b9ec       0x2a /Applications/ARM/bin/../lib/gcc/arm-none-eabi/10.3.1/../../../../arm-none-eabi/lib/thumb/v7e-m/nofp/libc_nano.a(lib_a-nano-vfprintf.o)
 .text.__sfputs_r
                0x000000002000ba16       0x24 /Applications/ARM/bin/../lib/gcc/arm-none-eabi/10.3.1/../../../../arm-none-eabi/lib/thumb/v7e-m/nofp/libc_nano.a(lib_a-nano-vfprintf.o)
                0x000000002000ba16                __sfputs_r
 *fill*         0x000000002000ba3a        0x2 
 .text._vfprintf_r
                0x000000002000ba3c      0x260 /Applications/ARM/bin/../lib/gcc/arm-none-eabi/10.3.1/../../../../arm-none-eabi/lib/thumb/v7e-m/nofp/libc_nano.a(lib_a-nano-vfprintf.o)
                0x000000002000ba3c                _vfiprintf_r
                0x000000002000ba3c                _vfprintf_r
 .text._printf_common
                0x000000002000bc9c       0xda /Applications/ARM/bin/../lib/gcc/arm-none-eabi/10.3.1/../../../../arm-none-eabi/lib/thumb/v7e-m/nofp/libc_nano.a(lib_a-nano-vfprintf_i.o)
                0x000000002000bc9c                _printf_common
 *fill*         0x000000002000bd76        0x2 
 .text._printf_i
                0x000000002000bd78      0x24c /Applications/ARM/bin/../lib/gcc/arm-none-eabi/10.3.1/../../../../arm-none-eabi/lib/thumb/v7e-m/nofp/libc_nano.a(lib_a-nano-vfprintf_i.o)
                0x000000002000bd78                _printf_i
 .text.__swbuf_r
                0x000000002000bfc4       0xa4 /Applications/ARM/bin/../lib/gcc/arm-none-eabi/10.3.1/../../../../arm-none-eabi/lib/thumb/v7e-m/nofp/libc_nano.a(lib_a-wbuf.o)
                0x000000002000bfc4                __swbuf_r
 .text.__swsetup_r
                0x000000002000c068       0xdc /Applications/ARM/bin/../lib/gcc/arm-none-eabi/10.3.1/../../../../arm-none-eabi/lib/thumb/v7e-m/nofp/libc_nano.a(lib_a-wsetup.o)
                0x000000002000c068                __swsetup_r
 .text.abort    0x000000002000c144        0xe /Applications/ARM/bin/../lib/gcc/arm-none-eabi/10.3.1/../../../../arm-none-eabi/lib/thumb/v7e-m/nofp/libc_nano.a(lib_a-abort.o)
                0x000000002000c144                abort
 *fill*         0x000000002000c152        0x2 
 .text.__sflush_r
                0x000000002000c154      0x104 /Applications/ARM/bin/../lib/gcc/arm-none-eabi/10.3.1/../../../../arm-none-eabi/lib/thumb/v7e-m/nofp/libc_nano.a(lib_a-fflush.o)
                0x000000002000c154                __sflush_r
 .text._fflush_r
                0x000000002000c258       0x78 /Applications/ARM/bin/../lib/gcc/arm-none-eabi/10.3.1/../../../../arm-none-eabi/lib/thumb/v7e-m/nofp/libc_nano.a(lib_a-fflush.o)
                0x000000002000c258                _fflush_r
 .text.std      0x000000002000c2d0       0x48 /Applications/ARM/bin/../lib/gcc/arm-none-eabi/10.3.1/../../../../arm-none-eabi/lib/thumb/v7e-m/nofp/libc_nano.a(lib_a-findfp.o)
 .text._cleanup_r
                0x000000002000c318        0xc /Applications/ARM/bin/../lib/gcc/arm-none-eabi/10.3.1/../../../../arm-none-eabi/lib/thumb/v7e-m/nofp/libc_nano.a(lib_a-findfp.o)
                0x000000002000c318                _cleanup_r
 .text.__sfmoreglue
                0x000000002000c324       0x2c /Applications/ARM/bin/../lib/gcc/arm-none-eabi/10.3.1/../../../../arm-none-eabi/lib/thumb/v7e-m/nofp/libc_nano.a(lib_a-findfp.o)
                0x000000002000c324                __sfmoreglue
 .text.__sfp_lock_acquire
                0x000000002000c350        0xc /Applications/ARM/bin/../lib/gcc/arm-none-eabi/10.3.1/../../../../arm-none-eabi/lib/thumb/v7e-m/nofp/libc_nano.a(lib_a-findfp.o)
                0x000000002000c350                __sfp_lock_acquire
 .text.__sfp_lock_release
                0x000000002000c35c        0xc /Applications/ARM/bin/../lib/gcc/arm-none-eabi/10.3.1/../../../../arm-none-eabi/lib/thumb/v7e-m/nofp/libc_nano.a(lib_a-findfp.o)
                0x000000002000c35c                __sfp_lock_release
 .text.__sinit_lock_acquire
                0x000000002000c368        0xc /Applications/ARM/bin/../lib/gcc/arm-none-eabi/10.3.1/../../../../arm-none-eabi/lib/thumb/v7e-m/nofp/libc_nano.a(lib_a-findfp.o)
                0x000000002000c368                __sinit_lock_acquire
 .text.__sinit_lock_release
                0x000000002000c374        0xc /Applications/ARM/bin/../lib/gcc/arm-none-eabi/10.3.1/../../../../arm-none-eabi/lib/thumb/v7e-m/nofp/libc_nano.a(lib_a-findfp.o)
                0x000000002000c374                __sinit_lock_release
 .text.__sinit  0x000000002000c380       0x70 /Applications/ARM/bin/../lib/gcc/arm-none-eabi/10.3.1/../../../../arm-none-eabi/lib/thumb/v7e-m/nofp/libc_nano.a(lib_a-findfp.o)
                0x000000002000c380                __sinit
 .text.__sfp    0x000000002000c3f0       0x8c /Applications/ARM/bin/../lib/gcc/arm-none-eabi/10.3.1/../../../../arm-none-eabi/lib/thumb/v7e-m/nofp/libc_nano.a(lib_a-findfp.o)
                0x000000002000c3f0                __sfp
 .text._fwalk_reent
                0x000000002000c47c       0x3e /Applications/ARM/bin/../lib/gcc/arm-none-eabi/10.3.1/../../../../arm-none-eabi/lib/thumb/v7e-m/nofp/libc_nano.a(lib_a-fwalk.o)
                0x000000002000c47c                _fwalk_reent
 .text.__retarget_lock_init_recursive
                0x000000002000c4ba        0x2 /Applications/ARM/bin/../lib/gcc/arm-none-eabi/10.3.1/../../../../arm-none-eabi/lib/thumb/v7e-m/nofp/libc_nano.a(lib_a-lock.o)
                0x000000002000c4ba                __retarget_lock_init_recursive
 .text.__retarget_lock_acquire_recursive
                0x000000002000c4bc        0x2 /Applications/ARM/bin/../lib/gcc/arm-none-eabi/10.3.1/../../../../arm-none-eabi/lib/thumb/v7e-m/nofp/libc_nano.a(lib_a-lock.o)
                0x000000002000c4bc                __retarget_lock_acquire_recursive
 .text.__retarget_lock_release_recursive
                0x000000002000c4be        0x2 /Applications/ARM/bin/../lib/gcc/arm-none-eabi/10.3.1/../../../../arm-none-eabi/lib/thumb/v7e-m/nofp/libc_nano.a(lib_a-lock.o)
                0x000000002000c4be                __retarget_lock_release_recursive
 .text.__swhatbuf_r
                0x000000002000c4c0       0x4a /Applications/ARM/bin/../lib/gcc/arm-none-eabi/10.3.1/../../../../arm-none-eabi/lib/thumb/v7e-m/nofp/libc_nano.a(lib_a-makebuf.o)
                0x000000002000c4c0                __swhatbuf_r
 *fill*         0x000000002000c50a        0x2 
 .text.__smakebuf_r
                0x000000002000c50c       0x80 /Applications/ARM/bin/../lib/gcc/arm-none-eabi/10.3.1/../../../../arm-none-eabi/lib/thumb/v7e-m/nofp/libc_nano.a(lib_a-makebuf.o)
                0x000000002000c50c                __smakebuf_r
 *fill*         0x000000002000c58c        0x4 
 .text          0x000000002000c590       0xa0 /Applications/ARM/bin/../lib/gcc/arm-none-eabi/10.3.1/../../../../arm-none-eabi/lib/thumb/v7e-m/nofp/libc_nano.a(lib_a-memchr.o)
                0x000000002000c590                memchr
 .text._malloc_usable_size_r
                0x000000002000c630       0x10 /Applications/ARM/bin/../lib/gcc/arm-none-eabi/10.3.1/../../../../arm-none-eabi/lib/thumb/v7e-m/nofp/libc_nano.a(lib_a-nano-msizer.o)
                0x000000002000c630                _malloc_usable_size_r
 .text._raise_r
                0x000000002000c640       0x50 /Applications/ARM/bin/../lib/gcc/arm-none-eabi/10.3.1/../../../../arm-none-eabi/lib/thumb/v7e-m/nofp/libc_nano.a(lib_a-signal.o)
                0x000000002000c640                _raise_r
 .text.raise    0x000000002000c690       0x10 /Applications/ARM/bin/../lib/gcc/arm-none-eabi/10.3.1/../../../../arm-none-eabi/lib/thumb/v7e-m/nofp/libc_nano.a(lib_a-signal.o)
                0x000000002000c690                raise
 .text._kill_r  0x000000002000c6a0       0x24 /Applications/ARM/bin/../lib/gcc/arm-none-eabi/10.3.1/../../../../arm-none-eabi/lib/thumb/v7e-m/nofp/libc_nano.a(lib_a-signalr.o)
                0x000000002000c6a0                _kill_r
 .text._getpid_r
                0x000000002000c6c4        0x4 /Applications/ARM/bin/../lib/gcc/arm-none-eabi/10.3.1/../../../../arm-none-eabi/lib/thumb/v7e-m/nofp/libc_nano.a(lib_a-signalr.o)
                0x000000002000c6c4                _getpid_r
 .text.__sread  0x000000002000c6c8       0x22 /Applications/ARM/bin/../lib/gcc/arm-none-eabi/10.3.1/../../../../arm-none-eabi/lib/thumb/v7e-m/nofp/libc_nano.a(lib_a-stdio.o)
                0x000000002000c6c8                __sread
 .text.__swrite
                0x000000002000c6ea       0x38 /Applications/ARM/bin/../lib/gcc/arm-none-eabi/10.3.1/../../../../arm-none-eabi/lib/thumb/v7e-m/nofp/libc_nano.a(lib_a-stdio.o)
                0x000000002000c6ea                __swrite
 .text.__sseek  0x000000002000c722       0x24 /Applications/ARM/bin/../lib/gcc/arm-none-eabi/10.3.1/../../../../arm-none-eabi/lib/thumb/v7e-m/nofp/libc_nano.a(lib_a-stdio.o)
                0x000000002000c722                __sseek
 .text.__sclose
                0x000000002000c746        0x8 /Applications/ARM/bin/../lib/gcc/arm-none-eabi/10.3.1/../../../../arm-none-eabi/lib/thumb/v7e-m/nofp/libc_nano.a(lib_a-stdio.o)
                0x000000002000c746                __sclose
 *fill*         0x000000002000c74e        0x2 
 .text._write_r
                0x000000002000c750       0x24 /Applications/ARM/bin/../lib/gcc/arm-none-eabi/10.3.1/../../../../arm-none-eabi/lib/thumb/v7e-m/nofp/libc_nano.a(lib_a-writer.o)
                0x000000002000c750                _write_r
 .text._close_r
                0x000000002000c774       0x20 /Applications/ARM/bin/../lib/gcc/arm-none-eabi/10.3.1/../../../../arm-none-eabi/lib/thumb/v7e-m/nofp/libc_nano.a(lib_a-closer.o)
                0x000000002000c774                _close_r
 .text._fstat_r
                0x000000002000c794       0x24 /Applications/ARM/bin/../lib/gcc/arm-none-eabi/10.3.1/../../../../arm-none-eabi/lib/thumb/v7e-m/nofp/libc_nano.a(lib_a-fstatr.o)
                0x000000002000c794                _fstat_r
 .text._isatty_r
                0x000000002000c7b8       0x20 /Applications/ARM/bin/../lib/gcc/arm-none-eabi/10.3.1/../../../../arm-none-eabi/lib/thumb/v7e-m/nofp/libc_nano.a(lib_a-isattyr.o)
                0x000000002000c7b8                _isatty_r
 .text._lseek_r
                0x000000002000c7d8       0x24 /Applications/ARM/bin/../lib/gcc/arm-none-eabi/10.3.1/../../../../arm-none-eabi/lib/thumb/v7e-m/nofp/libc_nano.a(lib_a-lseekr.o)
                0x000000002000c7d8                _lseek_r
 .text._read_r  0x000000002000c7fc       0x24 /Applications/ARM/bin/../lib/gcc/arm-none-eabi/10.3.1/../../../../arm-none-eabi/lib/thumb/v7e-m/nofp/libc_nano.a(lib_a-readr.o)
                0x000000002000c7fc                _read_r
 .text._close   0x000000002000c820       0x10 /Applications/ARM/bin/../lib/gcc/arm-none-eabi/10.3.1/../../../../arm-none-eabi/lib/thumb/v7e-m/nofp/libnosys.a(close.o)
                0x000000002000c820                _close
 .text._fstat   0x000000002000c830       0x10 /Applications/ARM/bin/../lib/gcc/arm-none-eabi/10.3.1/../../../../arm-none-eabi/lib/thumb/v7e-m/nofp/libnosys.a(fstat.o)
                0x000000002000c830                _fstat
 .text._getpid  0x000000002000c840       0x10 /Applications/ARM/bin/../lib/gcc/arm-none-eabi/10.3.1/../../../../arm-none-eabi/lib/thumb/v7e-m/nofp/libnosys.a(getpid.o)
                0x000000002000c840                _getpid
 .text._isatty  0x000000002000c850       0x10 /Applications/ARM/bin/../lib/gcc/arm-none-eabi/10.3.1/../../../../arm-none-eabi/lib/thumb/v7e-m/nofp/libnosys.a(isatty.o)
                0x000000002000c850                _isatty
 .text._kill    0x000000002000c860       0x10 /Applications/ARM/bin/../lib/gcc/arm-none-eabi/10.3.1/../../../../arm-none-eabi/lib/thumb/v7e-m/nofp/libnosys.a(kill.o)
                0x000000002000c860                _kill
 .text._lseek   0x000000002000c870       0x10 /Applications/ARM/bin/../lib/gcc/arm-none-eabi/10.3.1/../../../../arm-none-eabi/lib/thumb/v7e-m/nofp/libnosys.a(lseek.o)
                0x000000002000c870                _lseek
 .text._read    0x000000002000c880       0x10 /Applications/ARM/bin/../lib/gcc/arm-none-eabi/10.3.1/../../../../arm-none-eabi/lib/thumb/v7e-m/nofp/libnosys.a(read.o)
                0x000000002000c880                _read
 .text._write   0x000000002000c890       0x10 /Applications/ARM/bin/../lib/gcc/arm-none-eabi/10.3.1/../../../../arm-none-eabi/lib/thumb/v7e-m/nofp/libnosys.a(write.o)
                0x000000002000c890                _write
 .text._exit    0x000000002000c8a0        0x4 /Applications/ARM/bin/../lib/gcc/arm-none-eabi/10.3.1/../../../../arm-none-eabi/lib/thumb/v7e-m/nofp/libnosys.a(_exit.o)
                0x000000002000c8a0                _exit
 *(.rodata*)
 .rodata.main.str1.1
                0x000000002000c8a4       0xa8 obj//Release/main.o
 .rodata.__FUNCTION__.0
                0x000000002000c94c        0x5 obj//Release/main.o
 .rodata.ParseWlanConnectString.str1.1
                0x000000002000c951       0xa8 obj//Release/serial_wifi.o
                                         0x30 (size before relaxing)
 .rodata.ParsePingString.str1.1
                0x000000002000c951       0x24 obj//Release/serial_wifi.o
 .rodata.ParseRecvString.str1.1
                0x000000002000c975       0x2e obj//Release/serial_wifi.o
 .rodata.ParseSendString.str1.1
                0x000000002000c9a3        0xf obj//Release/serial_wifi.o
 .rodata.ParseConnectString.str1.1
                0x000000002000c9b2       0x4c obj//Release/serial_wifi.o
 .rodata.ExecuteCommand.str1.1
                0x000000002000c9fe      0x133 obj//Release/serial_wifi.o
 .rodata.StartTcpServer.str1.1
                0x000000002000cb31       0x1e obj//Release/serial_wifi.o
 .rodata.StartInterpreterMode.str1.1
                0x000000002000cb4f       0x19 obj//Release/serial_wifi.o
 .rodata.InitialiseCmdMenu.str1.1
                0x000000002000cb68       0x42 obj//Release/serial_wifi.o
                                         0x4f (size before relaxing)
 .rodata.InitialConfiguration.str1.1
                0x000000002000cbaa       0x44 obj//Release/serial_wifi.o
 .rodata.Interpreter_Task.str1.1
                0x000000002000cbee      0x304 obj//Release/serial_wifi.o
 .rodata        0x000000002000cef2        0x8 obj//Release/serial_wifi.o
 .rodata.__FUNCTION__.0
                0x000000002000cefa       0x15 obj//Release/serial_wifi.o
 .rodata.__FUNCTION__.1
                0x000000002000cf0f        0xf obj//Release/serial_wifi.o
 .rodata.__FUNCTION__.10
                0x000000002000cf1e        0x9 obj//Release/serial_wifi.o
 .rodata.__FUNCTION__.11
                0x000000002000cf27        0xb obj//Release/serial_wifi.o
 .rodata.__FUNCTION__.12
                0x000000002000cf32       0x21 obj//Release/serial_wifi.o
 .rodata.__FUNCTION__.2
                0x000000002000cf53        0xf obj//Release/serial_wifi.o
 .rodata.__FUNCTION__.3
                0x000000002000cf62       0x13 obj//Release/serial_wifi.o
 .rodata.__FUNCTION__.4
                0x000000002000cf75       0x10 obj//Release/serial_wifi.o
 .rodata.__FUNCTION__.5
                0x000000002000cf85       0x10 obj//Release/serial_wifi.o
 .rodata.__FUNCTION__.6
                0x000000002000cf95       0x10 obj//Release/serial_wifi.o
 .rodata.__FUNCTION__.7
                0x000000002000cfa5       0x10 obj//Release/serial_wifi.o
 .rodata.__FUNCTION__.8
                0x000000002000cfb5       0x17 obj//Release/serial_wifi.o
 .rodata.__FUNCTION__.9
                0x000000002000cfcc       0x15 obj//Release/serial_wifi.o
 .rodata.PrintCommandMenu.str1.1
                0x000000002000cfe1      0xc25 obj//Release/uart_config.o
 .rodata.SimpleLinkWlanEventHandler.str1.1
                0x000000002000dc06      0x12d obj//Release/network_if.o
 .rodata.SimpleLinkNetAppEventHandler.str1.1
                0x000000002000dd33       0xa0 obj//Release/network_if.o
 .rodata.SimpleLinkGeneralEventHandler.str1.1
                0x000000002000ddd3       0x28 obj//Release/network_if.o
 .rodata.SimpleLinkSockEventHandler.str1.1
                0x000000002000ddfb      0x1ea obj//Release/network_if.o
 .rodata.ClearTerm.str1.1
                0x000000002000dfe5        0x6 obj//Release/uart_if.o
 .rodata.Report.str1.1
                0x000000002000dfeb       0x1e obj//Release/uart_if.o
 .rodata.StartResponseLUT
                0x000000002000e009        0x8 ../../../simplelink/gcc/lib/os/Release/libsimplelink.a(device.o)
 *fill*         0x000000002000e011        0x1 
 .rodata._SlDeviceGetCmdCtrl
                0x000000002000e012        0x4 ../../../simplelink/gcc/lib/os/Release/libsimplelink.a(device.o)
 .rodata._SlDeviceSetCmdCtrl
                0x000000002000e016        0x4 ../../../simplelink/gcc/lib/os/Release/libsimplelink.a(device.o)
 .rodata._SlStopCmdCtrl
                0x000000002000e01a        0x4 ../../../simplelink/gcc/lib/os/Release/libsimplelink.a(device.o)
 .rodata.OpcodeTranslateTable
                0x000000002000e01e       0x3c ../../../simplelink/gcc/lib/os/Release/libsimplelink.a(driver.o)
                0x000000002000e01e                OpcodeTranslateTable
 *fill*         0x000000002000e05a        0x2 
 .rodata.RxMsgClassLUT
                0x000000002000e05c       0x20 ../../../simplelink/gcc/lib/os/Release/libsimplelink.a(driver.o)
 .rodata._SlActionLookupTable
                0x000000002000e07c       0x38 ../../../simplelink/gcc/lib/os/Release/libsimplelink.a(driver.o)
                0x000000002000e07c                _SlActionLookupTable
 .rodata.g_H2NCnysPattern
                0x000000002000e0b4        0x8 ../../../simplelink/gcc/lib/os/Release/libsimplelink.a(driver.o)
 .rodata.g_H2NSyncPattern
                0x000000002000e0bc        0x8 ../../../simplelink/gcc/lib/os/Release/libsimplelink.a(driver.o)
 .rodata        0x000000002000e0c4        0x4 ../../../simplelink/gcc/lib/os/Release/libsimplelink.a(netapp.o)
 .rodata._SlGetHostByServiceCtrl
                0x000000002000e0c8        0x4 ../../../simplelink/gcc/lib/os/Release/libsimplelink.a(netapp.o)
 .rodata._SlNetAppSendTokenValueCmdCtrl
                0x000000002000e0cc        0x4 ../../../simplelink/gcc/lib/os/Release/libsimplelink.a(netapp.o)
                0x000000002000e0cc                _SlNetAppSendTokenValueCmdCtrl
 .rodata._SlRegisterServiceCtrl
                0x000000002000e0d0        0x4 ../../../simplelink/gcc/lib/os/Release/libsimplelink.a(netapp.o)
 .rodata._SlNetCfgSetCmdCtrl
                0x000000002000e0d4        0x4 ../../../simplelink/gcc/lib/os/Release/libsimplelink.a(netcfg.o)
 .rodata        0x000000002000e0d8       0x14 ../../../simplelink/gcc/lib/os/Release/libsimplelink.a(fs.o)
 .rodata._SlFsCloseCmdCtrl
                0x000000002000e0ec        0x4 ../../../simplelink/gcc/lib/os/Release/libsimplelink.a(fs.o)
 .rodata._SlFsOpenCmdCtrl
                0x000000002000e0f0        0x4 ../../../simplelink/gcc/lib/os/Release/libsimplelink.a(fs.o)
 .rodata._SlFsReadCmdCtrl
                0x000000002000e0f4        0x4 ../../../simplelink/gcc/lib/os/Release/libsimplelink.a(fs.o)
 .rodata._SlFsWriteCmdCtrl
                0x000000002000e0f8        0x4 ../../../simplelink/gcc/lib/os/Release/libsimplelink.a(fs.o)
 .rodata._SlAcceptCmdCtrl
                0x000000002000e0fc        0x4 ../../../simplelink/gcc/lib/os/Release/libsimplelink.a(socket.o)
 .rodata._SlGetSockOptCmdCtrl
                0x000000002000e100        0x4 ../../../simplelink/gcc/lib/os/Release/libsimplelink.a(socket.o)
 .rodata._SlListenCmdCtrl
                0x000000002000e104        0x4 ../../../simplelink/gcc/lib/os/Release/libsimplelink.a(socket.o)
 .rodata._SlPayloadByProtocolLUT
                0x000000002000e108       0x10 ../../../simplelink/gcc/lib/os/Release/libsimplelink.a(socket.o)
 .rodata._SlRecvCmdCtrl
                0x000000002000e118        0x4 ../../../simplelink/gcc/lib/os/Release/libsimplelink.a(socket.o)
 .rodata._SlRecvfomCmdCtrl
                0x000000002000e11c        0x4 ../../../simplelink/gcc/lib/os/Release/libsimplelink.a(socket.o)
 .rodata._SlSelectCmdCtrl
                0x000000002000e120        0x4 ../../../simplelink/gcc/lib/os/Release/libsimplelink.a(socket.o)
 .rodata._SlSendCmdCtrl
                0x000000002000e124        0x4 ../../../simplelink/gcc/lib/os/Release/libsimplelink.a(socket.o)
 .rodata._SlSetSockOptCmdCtrl
                0x000000002000e128        0x4 ../../../simplelink/gcc/lib/os/Release/libsimplelink.a(socket.o)
 .rodata._SlSockCloseCmdCtrl
                0x000000002000e12c        0x4 ../../../simplelink/gcc/lib/os/Release/libsimplelink.a(socket.o)
 .rodata._SlSockSocketCmdCtrl
                0x000000002000e130        0x4 ../../../simplelink/gcc/lib/os/Release/libsimplelink.a(socket.o)
 .rodata._SlPolicySetCmdCtrl
                0x000000002000e134        0x4 ../../../simplelink/gcc/lib/os/Release/libsimplelink.a(wlan.o)
 .rodata._SlWlanCfgSetCmdCtrl
                0x000000002000e138        0x4 ../../../simplelink/gcc/lib/os/Release/libsimplelink.a(wlan.o)
 .rodata._SlWlanSetModeCmdCtrl
                0x000000002000e13c        0x4 ../../../simplelink/gcc/lib/os/Release/libsimplelink.a(wlan.o)
 .rodata.spi_Open.str1.1
                0x000000002000e140        0x9 ../../../simplelink/gcc/lib/os/Release/libsimplelink.a(cc_pal.o)
 .rodata.VStartSimpleLinkSpawnTask.str1.1
                0x000000002000e149        0x8 ../../../oslib/gcc/free_rtos/Release/free_rtos.a(osi_freertos.o)
 .rodata.vTaskStartScheduler.str1.1
                0x000000002000e151        0x5 ../../../oslib/gcc/free_rtos/Release/free_rtos.a(tasks.o)
 *fill*         0x000000002000e156        0x2 
 .rodata.g_pulDisRegs
                0x000000002000e158       0x18 ../../../driverlib/gcc/lib/Release/libdriver.a(interrupt.o)
 .rodata.g_pulEnRegs
                0x000000002000e170       0x18 ../../../driverlib/gcc/lib/Release/libdriver.a(interrupt.o)
 .rodata.PRCM_PeriphRegsList
                0x000000002000e188       0xa8 ../../../driverlib/gcc/lib/Release/libdriver.a(prcm.o)
 .rodata.strtok.str1.1
                0x000000002000e230       0x73 /Applications/ARM/bin/../lib/gcc/arm-none-eabi/10.3.1/../../../../arm-none-eabi/lib/thumb/v7e-m/nofp/libc_nano.a(lib_a-strtok.o)
 .rodata.__assert_func.str1.1
                0x000000002000e2a3       0x3c /Applications/ARM/bin/../lib/gcc/arm-none-eabi/10.3.1/../../../../arm-none-eabi/lib/thumb/v7e-m/nofp/libc_nano.a(lib_a-assert.o)
                                         0x3d (size before relaxing)
 .rodata._ctype_
                0x000000002000e2df      0x101 /Applications/ARM/bin/../lib/gcc/arm-none-eabi/10.3.1/../../../../arm-none-eabi/lib/thumb/v7e-m/nofp/libc_nano.a(lib_a-ctype_.o)
                0x000000002000e2df                _ctype_
 .rodata._global_impure_ptr
                0x000000002000e3e0        0x4 /Applications/ARM/bin/../lib/gcc/arm-none-eabi/10.3.1/../../../../arm-none-eabi/lib/thumb/v7e-m/nofp/libc_nano.a(lib_a-impure.o)
                0x000000002000e3e0                _global_impure_ptr
 .rodata._svfprintf_r.str1.1
                0x000000002000e3e4       0x11 /Applications/ARM/bin/../lib/gcc/arm-none-eabi/10.3.1/../../../../arm-none-eabi/lib/thumb/v7e-m/nofp/libc_nano.a(lib_a-nano-svfprintf.o)
 .rodata._vfprintf_r.str1.1
                0x000000002000e3f5       0x11 /Applications/ARM/bin/../lib/gcc/arm-none-eabi/10.3.1/../../../../arm-none-eabi/lib/thumb/v7e-m/nofp/libc_nano.a(lib_a-nano-vfprintf.o)
 .rodata._printf_i.str1.1
                0x000000002000e3f5       0x22 /Applications/ARM/bin/../lib/gcc/arm-none-eabi/10.3.1/../../../../arm-none-eabi/lib/thumb/v7e-m/nofp/libc_nano.a(lib_a-nano-vfprintf_i.o)
 *fill*         0x000000002000e417        0x1 
 .rodata.__sf_fake_stderr
                0x000000002000e418       0x20 /Applications/ARM/bin/../lib/gcc/arm-none-eabi/10.3.1/../../../../arm-none-eabi/lib/thumb/v7e-m/nofp/libc_nano.a(lib_a-findfp.o)
                0x000000002000e418                __sf_fake_stderr
 .rodata.__sf_fake_stdin
                0x000000002000e438       0x20 /Applications/ARM/bin/../lib/gcc/arm-none-eabi/10.3.1/../../../../arm-none-eabi/lib/thumb/v7e-m/nofp/libc_nano.a(lib_a-findfp.o)
                0x000000002000e438                __sf_fake_stdin
 .rodata.__sf_fake_stdout
                0x000000002000e458       0x20 /Applications/ARM/bin/../lib/gcc/arm-none-eabi/10.3.1/../../../../arm-none-eabi/lib/thumb/v7e-m/nofp/libc_nano.a(lib_a-findfp.o)
                0x000000002000e458                __sf_fake_stdout
 *(.ARM.extab* .gnu.linkonce.armextab.*)
                0x000000002000e478                . = ALIGN (0x8)
                0x000000002000e478                _etext = .

.glue_7         0x000000002000e478        0x0
 .glue_7        0x000000002000e478        0x0 linker stubs

.glue_7t        0x000000002000e478        0x0
 .glue_7t       0x000000002000e478        0x0 linker stubs

.vfp11_veneer   0x000000002000e478        0x0
 .vfp11_veneer  0x000000002000e478        0x0 linker stubs

.v4_bx          0x000000002000e478        0x0
 .v4_bx         0x000000002000e478        0x0 linker stubs

.iplt           0x000000002000e478        0x0
 .iplt          0x000000002000e478        0x0 obj//Release/main.o

.rel.dyn        0x000000002000e478        0x0
 .rel.iplt      0x000000002000e478        0x0 obj//Release/main.o

.ARM            0x000000002000e478        0x0
                0x000000002000e478                __exidx_start = .
 *(.ARM.exidx*)
                0x000000002000e478                __exidx_end = .
                0x000000002000e478                __init_data = .

.data           0x000000002000e478       0x80
                0x000000002000e478                _data = .
 *(.data*)
 .data.g_UartCmdSent
                0x000000002000e478        0x4 obj//Release/serial_wifi.o
                0x000000002000e478                g_UartCmdSent
 .data.g_WrapMode
                0x000000002000e47c        0x1 obj//Release/serial_wifi.o
                0x000000002000e47c                g_WrapMode
 *fill*         0x000000002000e47d        0x3 
 .data.g_imDNSMode
                0x000000002000e480        0x4 obj//Release/serial_wifi.o
                0x000000002000e480                g_imDNSMode
 .data.g_mDNSStatus
                0x000000002000e484        0x4 obj//Release/serial_wifi.o
                0x000000002000e484                g_mDNSStatus
 .data.g_uiCipher
                0x000000002000e488        0x4 obj//Release/serial_wifi.o
                0x000000002000e488                g_uiCipher
 .data.ilength  0x000000002000e48c        0x4 obj//Release/serial_wifi.o
                0x000000002000e48c                ilength
 .data.uxCriticalNesting
                0x000000002000e490        0x4 ../../../oslib/gcc/free_rtos/Release/free_rtos.a(port.o)
 .data._impure_ptr
                0x000000002000e494        0x4 /Applications/ARM/bin/../lib/gcc/arm-none-eabi/10.3.1/../../../../arm-none-eabi/lib/thumb/v7e-m/nofp/libc_nano.a(lib_a-impure.o)
                0x000000002000e494                _impure_ptr
 .data.impure_data
                0x000000002000e498       0x60 /Applications/ARM/bin/../lib/gcc/arm-none-eabi/10.3.1/../../../../arm-none-eabi/lib/thumb/v7e-m/nofp/libc_nano.a(lib_a-impure.o)
                0x000000002000e4f8                . = ALIGN (0x8)
                0x000000002000e4f8                _edata = .

.igot.plt       0x000000002000e4f8        0x0
 .igot.plt      0x000000002000e4f8        0x0 obj//Release/main.o

.bss            0x000000002000e4f8     0x16fb
                0x000000002000e4f8                _bss = .
 *(.bss*)
 .bss.eapParams
                0x000000002000e4f8       0x14 obj//Release/serial_wifi.o
                0x000000002000e4f8                eapParams
 .bss.g_ActiveReadFds
                0x000000002000e50c        0x4 obj//Release/serial_wifi.o
                0x000000002000e50c                g_ActiveReadFds
 .bss.g_AddrLen
                0x000000002000e510        0x2 obj//Release/serial_wifi.o
                0x000000002000e510                g_AddrLen
 *fill*         0x000000002000e512        0x2 
 .bss.g_BytesRx
                0x000000002000e514        0x4 obj//Release/serial_wifi.o
                0x000000002000e514                g_BytesRx
 .bss.g_BytesTx
                0x000000002000e518        0x4 obj//Release/serial_wifi.o
                0x000000002000e518                g_BytesTx
 .bss.g_ConfigurationDone
                0x000000002000e51c        0x4 obj//Release/serial_wifi.o
                0x000000002000e51c                g_ConfigurationDone
 .bss.g_InterpreterMode
                0x000000002000e520        0x1 obj//Release/serial_wifi.o
                0x000000002000e520                g_InterpreterMode
 *fill*         0x000000002000e521        0x1 
 .bss.g_LocalAddr
                0x000000002000e522       0x10 obj//Release/serial_wifi.o
                0x000000002000e522                g_LocalAddr
 *fill*         0x000000002000e532        0x2 
 .bss.g_MulticastIp
                0x000000002000e534        0x8 obj//Release/serial_wifi.o
                0x000000002000e534                g_MulticastIp
 .bss.g_NonBlocking
                0x000000002000e53c        0x4 obj//Release/serial_wifi.o
                0x000000002000e53c                g_NonBlocking
 .bss.g_Protocol
                0x000000002000e540        0x4 obj//Release/serial_wifi.o
                0x000000002000e540                g_Protocol
 .bss.g_ReadFds
                0x000000002000e544        0x4 obj//Release/serial_wifi.o
                0x000000002000e544                g_ReadFds
 .bss.g_RemoteAddr
                0x000000002000e548       0x10 obj//Release/serial_wifi.o
                0x000000002000e548                g_RemoteAddr
 .bss.g_RetVal  0x000000002000e558        0x4 obj//Release/serial_wifi.o
                0x000000002000e558                g_RetVal
 .bss.g_SecParams
                0x000000002000e55c        0xc obj//Release/serial_wifi.o
                0x000000002000e55c                g_SecParams
 .bss.g_Socket  0x000000002000e568        0x4 obj//Release/serial_wifi.o
                0x000000002000e568                g_Socket
 .bss.g_SocketChild
                0x000000002000e56c        0x4 obj//Release/serial_wifi.o
                0x000000002000e56c                g_SocketChild
 .bss.g_SocketTcpServer
                0x000000002000e570        0x4 obj//Release/serial_wifi.o
                0x000000002000e570                g_SocketTcpServer
 .bss.g_SocketUdpServer
                0x000000002000e574        0x4 obj//Release/serial_wifi.o
                0x000000002000e574                g_SocketUdpServer
 .bss.g_Status  0x000000002000e578        0x4 obj//Release/serial_wifi.o
                0x000000002000e578                g_Status
 .bss.g_TcpConnected
                0x000000002000e57c        0x4 obj//Release/serial_wifi.o
                0x000000002000e57c                g_TcpConnected
 .bss.g_Type    0x000000002000e580        0x4 obj//Release/serial_wifi.o
                0x000000002000e580                g_Type
 .bss.g_UartHaveCmd
                0x000000002000e584        0x4 obj//Release/serial_wifi.o
                0x000000002000e584                g_UartHaveCmd
 .bss.g_UartMode
                0x000000002000e588        0x1 obj//Release/serial_wifi.o
                0x000000002000e588                g_UartMode
 .bss.g_WlanRxMode
                0x000000002000e589        0x1 obj//Release/serial_wifi.o
                0x000000002000e589                g_WlanRxMode
 .bss.g_cmd_help
                0x000000002000e58a       0xf0 obj//Release/serial_wifi.o
                0x000000002000e58a                g_cmd_help
 *fill*         0x000000002000e67a        0x2 
 .bss.g_isFileHandle
                0x000000002000e67c        0x4 obj//Release/serial_wifi.o
                0x000000002000e67c                g_isFileHandle
 .bss.g_mDNSMode
                0x000000002000e680        0x4 obj//Release/serial_wifi.o
                0x000000002000e680                g_mDNSMode
 .bss.g_pcData  0x000000002000e684        0x4 obj//Release/serial_wifi.o
                0x000000002000e684                g_pcData
 .bss.g_pcIp    0x000000002000e688        0x4 obj//Release/serial_wifi.o
                0x000000002000e688                g_pcIp
 .bss.g_pcLength
                0x000000002000e68c        0x4 obj//Release/serial_wifi.o
                0x000000002000e68c                g_pcLength
 .bss.g_pcPingAttempts
                0x000000002000e690        0x4 obj//Release/serial_wifi.o
                0x000000002000e690                g_pcPingAttempts
 .bss.g_pcPort  0x000000002000e694        0x4 obj//Release/serial_wifi.o
                0x000000002000e694                g_pcPort
 .bss.g_pcProtocol
                0x000000002000e698        0x4 obj//Release/serial_wifi.o
                0x000000002000e698                g_pcProtocol
 .bss.g_pcSsid  0x000000002000e69c        0x4 obj//Release/serial_wifi.o
                0x000000002000e69c                g_pcSsid
 .bss.g_pcTimeout
                0x000000002000e6a0        0x4 obj//Release/serial_wifi.o
                0x000000002000e6a0                g_pcTimeout
 .bss.g_time    0x000000002000e6a4       0x2c obj//Release/serial_wifi.o
                0x000000002000e6a4                g_time
 .bss.g_timeout
                0x000000002000e6d0        0x8 obj//Release/serial_wifi.o
                0x000000002000e6d0                g_timeout
 .bss.g_ucMethod
                0x000000002000e6d8        0x1 obj//Release/serial_wifi.o
                0x000000002000e6d8                g_ucMethod
 .bss.g_ucUARTBuffer
                0x000000002000e6d9       0x50 obj//Release/serial_wifi.o
                0x000000002000e6d9                g_ucUARTBuffer
 .bss.g_ucUARTRecvBuffer
                0x000000002000e729       0x50 obj//Release/serial_wifi.o
                0x000000002000e729                g_ucUARTRecvBuffer
 *fill*         0x000000002000e779        0x3 
 .bss.g_ulIp    0x000000002000e77c        0x4 obj//Release/serial_wifi.o
                0x000000002000e77c                g_ulIp
 .bss.g_ulLength
                0x000000002000e780        0x4 obj//Release/serial_wifi.o
                0x000000002000e780                g_ulLength
 .bss.g_ulPingAttempts
                0x000000002000e784        0x4 obj//Release/serial_wifi.o
                0x000000002000e784                g_ulPingAttempts
 .bss.g_ulPingIp
                0x000000002000e788        0x4 obj//Release/serial_wifi.o
                0x000000002000e788                g_ulPingIp
 .bss.g_ulPort  0x000000002000e78c        0x4 obj//Release/serial_wifi.o
                0x000000002000e78c                g_ulPort
 .bss.g_ulSsidLen
                0x000000002000e790        0x4 obj//Release/serial_wifi.o
                0x000000002000e790                g_ulSsidLen
 .bss.uBufRx    0x000000002000e794       0x64 obj//Release/serial_wifi.o
                0x000000002000e794                uBufRx
 .bss.uiUartline
                0x000000002000e7f8        0x4 obj//Release/serial_wifi.o
                0x000000002000e7f8                uiUartline
 .bss.g_ucConnectionBSSID
                0x000000002000e7fc        0x6 obj//Release/network_if.o
                0x000000002000e7fc                g_ucConnectionBSSID
 .bss.g_ucConnectionSSID
                0x000000002000e802       0x21 obj//Release/network_if.o
                0x000000002000e802                g_ucConnectionSSID
 *fill*         0x000000002000e823        0x1 
 .bss.g_ulGatewayIP
                0x000000002000e824        0x4 obj//Release/network_if.o
                0x000000002000e824                g_ulGatewayIP
 .bss.g_ulStaIp
                0x000000002000e828        0x4 obj//Release/network_if.o
                0x000000002000e828                g_ulStaIp
 .bss.g_ulStatus
                0x000000002000e82c        0x4 obj//Release/network_if.o
                0x000000002000e82c                g_ulStatus
 .bss.__Errorlog
                0x000000002000e830        0x4 obj//Release/uart_if.o
 .bss.heap_end  0x000000002000e834        0x4 obj//Release/startup_gcc.o
 .bss.pui32Stack
                0x000000002000e838     0x1000 obj//Release/startup_gcc.o
 .bss.RxIrqCnt  0x000000002000f838        0x1 ../../../simplelink/gcc/lib/os/Release/libsimplelink.a(driver.o)
                0x000000002000f838                RxIrqCnt
 .bss.gFirstCmdMode
                0x000000002000f839        0x1 ../../../simplelink/gcc/lib/os/Release/libsimplelink.a(driver.o)
 .bss.g_SlDeviceStatus
                0x000000002000f83a        0x2 ../../../simplelink/gcc/lib/os/Release/libsimplelink.a(driver.o)
                0x000000002000f83a                g_SlDeviceStatus
 .bss.g_StatMem
                0x000000002000f83c      0x178 ../../../simplelink/gcc/lib/os/Release/libsimplelink.a(driver.o)
 .bss.g_bDeviceRestartIsRequired
                0x000000002000f9b4        0x1 ../../../simplelink/gcc/lib/os/Release/libsimplelink.a(driver.o)
                0x000000002000f9b4                g_bDeviceRestartIsRequired
 *fill*         0x000000002000f9b5        0x3 
 .bss.g_pCB     0x000000002000f9b8        0x4 ../../../simplelink/gcc/lib/os/Release/libsimplelink.a(driver.o)
                0x000000002000f9b8                g_pCB
 .bss.pPingCallBackFunc
                0x000000002000f9bc        0x4 ../../../simplelink/gcc/lib/os/Release/libsimplelink.a(driver.o)
                0x000000002000f9bc                pPingCallBackFunc
 .bss.DMAMsgQ   0x000000002000f9c0        0x4 ../../../simplelink/gcc/lib/os/Release/libsimplelink.a(cc_pal.o)
                0x000000002000f9c0                DMAMsgQ
 .bss.g_SpiFd   0x000000002000f9c4        0x4 ../../../simplelink/gcc/lib/os/Release/libsimplelink.a(cc_pal.o)
                0x000000002000f9c4                g_SpiFd
 .bss.g_cDummy  0x000000002000f9c8        0x4 ../../../simplelink/gcc/lib/os/Release/libsimplelink.a(cc_pal.o)
                0x000000002000f9c8                g_cDummy
 .bss.g_ucDMAEnabled
                0x000000002000f9cc        0x1 ../../../simplelink/gcc/lib/os/Release/libsimplelink.a(cc_pal.o)
                0x000000002000f9cc                g_ucDMAEnabled
 *fill*         0x000000002000f9cd        0x3 
 .bss.g_ucDinDout
                0x000000002000f9d0       0x50 ../../../simplelink/gcc/lib/os/Release/libsimplelink.a(cc_pal.o)
                0x000000002000f9d0                g_ucDinDout
 .bss.xHigherPriorityTaskWoken
                0x000000002000fa20        0x4 ../../../oslib/gcc/free_rtos/Release/free_rtos.a(osi_freertos.o)
                0x000000002000fa20                xHigherPriorityTaskWoken
 .bss.xSimpleLinkSpawnQueue
                0x000000002000fa24        0x4 ../../../oslib/gcc/free_rtos/Release/free_rtos.a(osi_freertos.o)
                0x000000002000fa24                xSimpleLinkSpawnQueue
 .bss.xSimpleLinkSpawnTaskHndl
                0x000000002000fa28        0x4 ../../../oslib/gcc/free_rtos/Release/free_rtos.a(osi_freertos.o)
                0x000000002000fa28                xSimpleLinkSpawnTaskHndl
 .bss.xQueueRegistry
                0x000000002000fa2c       0x50 ../../../oslib/gcc/free_rtos/Release/free_rtos.a(queue.o)
                0x000000002000fa2c                xQueueRegistry
 .bss.pxCurrentTCB
                0x000000002000fa7c        0x4 ../../../oslib/gcc/free_rtos/Release/free_rtos.a(tasks.o)
                0x000000002000fa7c                pxCurrentTCB
 .bss.pxDelayedTaskList
                0x000000002000fa80        0x4 ../../../oslib/gcc/free_rtos/Release/free_rtos.a(tasks.o)
 .bss.pxOverflowDelayedTaskList
                0x000000002000fa84        0x4 ../../../oslib/gcc/free_rtos/Release/free_rtos.a(tasks.o)
 .bss.pxReadyTasksLists
                0x000000002000fa88       0xc8 ../../../oslib/gcc/free_rtos/Release/free_rtos.a(tasks.o)
 .bss.uxCurrentNumberOfTasks
                0x000000002000fb50        0x4 ../../../oslib/gcc/free_rtos/Release/free_rtos.a(tasks.o)
 .bss.uxDeletedTasksWaitingCleanUp
                0x000000002000fb54        0x4 ../../../oslib/gcc/free_rtos/Release/free_rtos.a(tasks.o)
 .bss.uxPendedTicks
                0x000000002000fb58        0x4 ../../../oslib/gcc/free_rtos/Release/free_rtos.a(tasks.o)
 .bss.uxSchedulerSuspended
                0x000000002000fb5c        0x4 ../../../oslib/gcc/free_rtos/Release/free_rtos.a(tasks.o)
 .bss.uxTaskNumber
                0x000000002000fb60        0x4 ../../../oslib/gcc/free_rtos/Release/free_rtos.a(tasks.o)
 .bss.uxTopReadyPriority
                0x000000002000fb64        0x4 ../../../oslib/gcc/free_rtos/Release/free_rtos.a(tasks.o)
 .bss.xDelayedTaskList1
                0x000000002000fb68       0x14 ../../../oslib/gcc/free_rtos/Release/free_rtos.a(tasks.o)
 .bss.xDelayedTaskList2
                0x000000002000fb7c       0x14 ../../../oslib/gcc/free_rtos/Release/free_rtos.a(tasks.o)
 .bss.xIdleTaskHandle
                0x000000002000fb90        0x4 ../../../oslib/gcc/free_rtos/Release/free_rtos.a(tasks.o)
 .bss.xNextTaskUnblockTime
                0x000000002000fb94        0x4 ../../../oslib/gcc/free_rtos/Release/free_rtos.a(tasks.o)
 .bss.xNumOfOverflows
                0x000000002000fb98        0x4 ../../../oslib/gcc/free_rtos/Release/free_rtos.a(tasks.o)
 .bss.xPendingReadyList
                0x000000002000fb9c       0x14 ../../../oslib/gcc/free_rtos/Release/free_rtos.a(tasks.o)
 .bss.xSchedulerRunning
                0x000000002000fbb0        0x4 ../../../oslib/gcc/free_rtos/Release/free_rtos.a(tasks.o)
 .bss.xSuspendedTaskList
                0x000000002000fbb4       0x14 ../../../oslib/gcc/free_rtos/Release/free_rtos.a(tasks.o)
 .bss.xTasksWaitingTermination
                0x000000002000fbc8       0x14 ../../../oslib/gcc/free_rtos/Release/free_rtos.a(tasks.o)
 .bss.xTickCount
                0x000000002000fbdc        0x4 ../../../oslib/gcc/free_rtos/Release/free_rtos.a(tasks.o)
 .bss.xYieldPending
                0x000000002000fbe0        0x4 ../../../oslib/gcc/free_rtos/Release/free_rtos.a(tasks.o)
 .bss.__malloc_free_list
                0x000000002000fbe4        0x4 /Applications/ARM/bin/../lib/gcc/arm-none-eabi/10.3.1/../../../../arm-none-eabi/lib/thumb/v7e-m/nofp/libc_nano.a(lib_a-nano-mallocr.o)
                0x000000002000fbe4                __malloc_free_list
 .bss.__malloc_sbrk_start
                0x000000002000fbe8        0x4 /Applications/ARM/bin/../lib/gcc/arm-none-eabi/10.3.1/../../../../arm-none-eabi/lib/thumb/v7e-m/nofp/libc_nano.a(lib_a-nano-mallocr.o)
                0x000000002000fbe8                __malloc_sbrk_start
 .bss.errno     0x000000002000fbec        0x4 /Applications/ARM/bin/../lib/gcc/arm-none-eabi/10.3.1/../../../../arm-none-eabi/lib/thumb/v7e-m/nofp/libc_nano.a(lib_a-reent.o)
                0x000000002000fbec                errno
 .bss.__lock___malloc_recursive_mutex
                0x000000002000fbf0        0x1 /Applications/ARM/bin/../lib/gcc/arm-none-eabi/10.3.1/../../../../arm-none-eabi/lib/thumb/v7e-m/nofp/libc_nano.a(lib_a-lock.o)
                0x000000002000fbf0                __lock___malloc_recursive_mutex
 .bss.__lock___sfp_recursive_mutex
                0x000000002000fbf1        0x1 /Applications/ARM/bin/../lib/gcc/arm-none-eabi/10.3.1/../../../../arm-none-eabi/lib/thumb/v7e-m/nofp/libc_nano.a(lib_a-lock.o)
                0x000000002000fbf1                __lock___sfp_recursive_mutex
 .bss.__lock___sinit_recursive_mutex
                0x000000002000fbf2        0x1 /Applications/ARM/bin/../lib/gcc/arm-none-eabi/10.3.1/../../../../arm-none-eabi/lib/thumb/v7e-m/nofp/libc_nano.a(lib_a-lock.o)
                0x000000002000fbf2                __lock___sinit_recursive_mutex
 *(COMMON)
                0x000000002000fbf3                _ebss = .

.heap           0x000000002000fbf3    0x3000d
                0x000000002000fbf3                _heap = .
                0x000000002003fc00                . = (((((((. + LENGTH (SRAM)) - SIZEOF (.bss)) - SIZEOF (.data)) - SIZEOF (.ARM)) - SIZEOF (.text)) - SIZEOF (.bootloader)) - 0x400)
 *fill*         0x000000002000fbf3    0x3000d 
                0x000000002003fc00                . = ALIGN (0x400)
                0x000000002003fc00                _eheap = .
LOAD obj//Release/main.o
LOAD obj//Release/pinmux.o
LOAD obj//Release/conversions.o
LOAD obj//Release/serial_wifi.o
LOAD obj//Release/uart_config.o
LOAD obj//Release/network_if.o
LOAD obj//Release/uart_if.o
LOAD obj//Release/startup_gcc.o
LOAD ../../../simplelink/gcc/lib/os/Release/libsimplelink.a
LOAD ../../../oslib/gcc/free_rtos/Release/free_rtos.a
LOAD ../../../driverlib/gcc/lib/Release/libdriver.a
LOAD /Applications/ARM/bin/../lib/gcc/arm-none-eabi/10.3.1/../../../../arm-none-eabi/lib/thumb/v7e-m/nofp/libm.a
LOAD /Applications/ARM/bin/../lib/gcc/arm-none-eabi/10.3.1/../../../../arm-none-eabi/lib/thumb/v7e-m/nofp/libc_nano.a
LOAD /Applications/ARM/bin/../lib/gcc/arm-none-eabi/10.3.1/thumb/v7e-m/nofp/libgcc.a
LOAD /Applications/ARM/bin/../lib/gcc/arm-none-eabi/10.3.1/../../../../arm-none-eabi/lib/thumb/v7e-m/nofp/libnosys.a
OUTPUT(bin//Release/serial_wifi.elf elf32-littlearm)
LOAD linker stubs

.debug_info     0x0000000000000000    0x1d257
 .debug_info    0x0000000000000000      0x34d obj//Release/main.o
 .debug_info    0x000000000000034d       0x95 obj//Release/pinmux.o
 .debug_info    0x00000000000003e2      0x3d5 obj//Release/conversions.o
 .debug_info    0x00000000000007b7     0x3a89 obj//Release/serial_wifi.o
 .debug_info    0x0000000000004240      0x607 obj//Release/uart_config.o
 .debug_info    0x0000000000004847     0x1d4d obj//Release/network_if.o
 .debug_info    0x0000000000006594      0x632 obj//Release/uart_if.o
 .debug_info    0x0000000000006bc6      0x226 obj//Release/startup_gcc.o
 .debug_info    0x0000000000006dec     0x1550 ../../../simplelink/gcc/lib/os/Release/libsimplelink.a(device.o)
 .debug_info    0x000000000000833c     0x3326 ../../../simplelink/gcc/lib/os/Release/libsimplelink.a(driver.o)
 .debug_info    0x000000000000b662     0x21db ../../../simplelink/gcc/lib/os/Release/libsimplelink.a(netapp.o)
 .debug_info    0x000000000000d83d      0x4cc ../../../simplelink/gcc/lib/os/Release/libsimplelink.a(netcfg.o)
 .debug_info    0x000000000000dd09      0xc67 ../../../simplelink/gcc/lib/os/Release/libsimplelink.a(fs.o)
 .debug_info    0x000000000000e970     0x2270 ../../../simplelink/gcc/lib/os/Release/libsimplelink.a(socket.o)
 .debug_info    0x0000000000010be0     0x22f0 ../../../simplelink/gcc/lib/os/Release/libsimplelink.a(wlan.o)
 .debug_info    0x0000000000012ed0     0x127d ../../../simplelink/gcc/lib/os/Release/libsimplelink.a(cc_pal.o)
 .debug_info    0x000000000001414d      0xe13 ../../../oslib/gcc/free_rtos/Release/free_rtos.a(osi_freertos.o)
 .debug_info    0x0000000000014f60     0x1ea2 ../../../oslib/gcc/free_rtos/Release/free_rtos.a(queue.o)
 .debug_info    0x0000000000016e02     0x2954 ../../../oslib/gcc/free_rtos/Release/free_rtos.a(tasks.o)
 .debug_info    0x0000000000019756      0x34f ../../../oslib/gcc/free_rtos/Release/free_rtos.a(port.o)
 .debug_info    0x0000000000019aa5      0x197 ../../../oslib/gcc/free_rtos/Release/free_rtos.a(heap_3.o)
 .debug_info    0x0000000000019c3c      0x2d3 ../../../oslib/gcc/free_rtos/Release/free_rtos.a(list.o)
 .debug_info    0x0000000000019f0f      0x443 ../../../driverlib/gcc/lib/Release/libdriver.a(interrupt.o)
 .debug_info    0x000000000001a352     0x19ec ../../../driverlib/gcc/lib/Release/libdriver.a(prcm.o)
 .debug_info    0x000000000001bd3e      0xdb1 ../../../driverlib/gcc/lib/Release/libdriver.a(spi.o)
 .debug_info    0x000000000001caef      0x716 ../../../driverlib/gcc/lib/Release/libdriver.a(timer.o)
 .debug_info    0x000000000001d205       0x52 ../../../driverlib/gcc/lib/Release/libdriver.a(utils.o)

.debug_abbrev   0x0000000000000000     0x443a
 .debug_abbrev  0x0000000000000000      0x15c obj//Release/main.o
 .debug_abbrev  0x000000000000015c       0x7e obj//Release/pinmux.o
 .debug_abbrev  0x00000000000001da      0x1ef obj//Release/conversions.o
 .debug_abbrev  0x00000000000003c9      0x42d obj//Release/serial_wifi.o
 .debug_abbrev  0x00000000000007f6      0x188 obj//Release/uart_config.o
 .debug_abbrev  0x000000000000097e      0x439 obj//Release/network_if.o
 .debug_abbrev  0x0000000000000db7      0x277 obj//Release/uart_if.o
 .debug_abbrev  0x000000000000102e      0x187 obj//Release/startup_gcc.o
 .debug_abbrev  0x00000000000011b5      0x37a ../../../simplelink/gcc/lib/os/Release/libsimplelink.a(device.o)
 .debug_abbrev  0x000000000000152f      0x528 ../../../simplelink/gcc/lib/os/Release/libsimplelink.a(driver.o)
 .debug_abbrev  0x0000000000001a57      0x3ba ../../../simplelink/gcc/lib/os/Release/libsimplelink.a(netapp.o)
 .debug_abbrev  0x0000000000001e11      0x1ae ../../../simplelink/gcc/lib/os/Release/libsimplelink.a(netcfg.o)
 .debug_abbrev  0x0000000000001fbf      0x301 ../../../simplelink/gcc/lib/os/Release/libsimplelink.a(fs.o)
 .debug_abbrev  0x00000000000022c0      0x3bc ../../../simplelink/gcc/lib/os/Release/libsimplelink.a(socket.o)
 .debug_abbrev  0x000000000000267c      0x2fb ../../../simplelink/gcc/lib/os/Release/libsimplelink.a(wlan.o)
 .debug_abbrev  0x0000000000002977      0x348 ../../../simplelink/gcc/lib/os/Release/libsimplelink.a(cc_pal.o)
 .debug_abbrev  0x0000000000002cbf      0x32a ../../../oslib/gcc/free_rtos/Release/free_rtos.a(osi_freertos.o)
 .debug_abbrev  0x0000000000002fe9      0x383 ../../../oslib/gcc/free_rtos/Release/free_rtos.a(queue.o)
 .debug_abbrev  0x000000000000336c      0x439 ../../../oslib/gcc/free_rtos/Release/free_rtos.a(tasks.o)
 .debug_abbrev  0x00000000000037a5      0x217 ../../../oslib/gcc/free_rtos/Release/free_rtos.a(port.o)
 .debug_abbrev  0x00000000000039bc      0x12c ../../../oslib/gcc/free_rtos/Release/free_rtos.a(heap_3.o)
 .debug_abbrev  0x0000000000003ae8      0x106 ../../../oslib/gcc/free_rtos/Release/free_rtos.a(list.o)
 .debug_abbrev  0x0000000000003bee      0x198 ../../../driverlib/gcc/lib/Release/libdriver.a(interrupt.o)
 .debug_abbrev  0x0000000000003d86      0x33e ../../../driverlib/gcc/lib/Release/libdriver.a(prcm.o)
 .debug_abbrev  0x00000000000040c4      0x212 ../../../driverlib/gcc/lib/Release/libdriver.a(spi.o)
 .debug_abbrev  0x00000000000042d6      0x118 ../../../driverlib/gcc/lib/Release/libdriver.a(timer.o)
 .debug_abbrev  0x00000000000043ee       0x4c ../../../driverlib/gcc/lib/Release/libdriver.a(utils.o)

.debug_loc      0x0000000000000000     0xf506
 .debug_loc     0x0000000000000000       0xa6 obj//Release/main.o
 .debug_loc     0x00000000000000a6      0x322 obj//Release/conversions.o
 .debug_loc     0x00000000000003c8      0xfc0 obj//Release/serial_wifi.o
 .debug_loc     0x0000000000001388       0xb4 obj//Release/uart_config.o
 .debug_loc     0x000000000000143c      0x9e8 obj//Release/network_if.o
 .debug_loc     0x0000000000001e24      0x37a obj//Release/uart_if.o
 .debug_loc     0x000000000000219e       0x47 obj//Release/startup_gcc.o
 .debug_loc     0x00000000000021e5      0x83a ../../../simplelink/gcc/lib/os/Release/libsimplelink.a(device.o)
 .debug_loc     0x0000000000002a1f     0x1c2e ../../../simplelink/gcc/lib/os/Release/libsimplelink.a(driver.o)
 .debug_loc     0x000000000000464d     0x1308 ../../../simplelink/gcc/lib/os/Release/libsimplelink.a(netapp.o)
 .debug_loc     0x0000000000005955      0x1de ../../../simplelink/gcc/lib/os/Release/libsimplelink.a(netcfg.o)
 .debug_loc     0x0000000000005b33      0x67c ../../../simplelink/gcc/lib/os/Release/libsimplelink.a(fs.o)
 .debug_loc     0x00000000000061af     0x10cc ../../../simplelink/gcc/lib/os/Release/libsimplelink.a(socket.o)
 .debug_loc     0x000000000000727b      0xfa4 ../../../simplelink/gcc/lib/os/Release/libsimplelink.a(wlan.o)
 .debug_loc     0x000000000000821f      0xa85 ../../../simplelink/gcc/lib/os/Release/libsimplelink.a(cc_pal.o)
 .debug_loc     0x0000000000008ca4      0x903 ../../../oslib/gcc/free_rtos/Release/free_rtos.a(osi_freertos.o)
 .debug_loc     0x00000000000095a7     0x177b ../../../oslib/gcc/free_rtos/Release/free_rtos.a(queue.o)
 .debug_loc     0x000000000000ad22     0x1e43 ../../../oslib/gcc/free_rtos/Release/free_rtos.a(tasks.o)
 .debug_loc     0x000000000000cb65       0xbe ../../../oslib/gcc/free_rtos/Release/free_rtos.a(port.o)
 .debug_loc     0x000000000000cc23       0x93 ../../../oslib/gcc/free_rtos/Release/free_rtos.a(heap_3.o)
 .debug_loc     0x000000000000ccb6       0xaf ../../../oslib/gcc/free_rtos/Release/free_rtos.a(list.o)
 .debug_loc     0x000000000000cd65      0x21a ../../../driverlib/gcc/lib/Release/libdriver.a(interrupt.o)
 .debug_loc     0x000000000000cf7f     0x128f ../../../driverlib/gcc/lib/Release/libdriver.a(prcm.o)
 .debug_loc     0x000000000000e20e      0xe5f ../../../driverlib/gcc/lib/Release/libdriver.a(spi.o)
 .debug_loc     0x000000000000f06d      0x499 ../../../driverlib/gcc/lib/Release/libdriver.a(timer.o)

.debug_aranges  0x0000000000000000     0x1048
 .debug_aranges
                0x0000000000000000       0x20 obj//Release/main.o
 .debug_aranges
                0x0000000000000020       0x20 obj//Release/pinmux.o
 .debug_aranges
                0x0000000000000040       0x48 obj//Release/conversions.o
 .debug_aranges
                0x0000000000000088       0x88 obj//Release/serial_wifi.o
 .debug_aranges
                0x0000000000000110       0x30 obj//Release/uart_config.o
 .debug_aranges
                0x0000000000000140       0xc8 obj//Release/network_if.o
 .debug_aranges
                0x0000000000000208       0x58 obj//Release/uart_if.o
 .debug_aranges
                0x0000000000000260       0x48 obj//Release/startup_gcc.o
 .debug_aranges
                0x00000000000002a8       0x68 ../../../simplelink/gcc/lib/os/Release/libsimplelink.a(device.o)
 .debug_aranges
                0x0000000000000310      0x130 ../../../simplelink/gcc/lib/os/Release/libsimplelink.a(driver.o)
 .debug_aranges
                0x0000000000000440       0xa0 ../../../simplelink/gcc/lib/os/Release/libsimplelink.a(netapp.o)
 .debug_aranges
                0x00000000000004e0       0x28 ../../../simplelink/gcc/lib/os/Release/libsimplelink.a(netcfg.o)
 .debug_aranges
                0x0000000000000508       0x58 ../../../simplelink/gcc/lib/os/Release/libsimplelink.a(fs.o)
 .debug_aranges
                0x0000000000000560       0xe0 ../../../simplelink/gcc/lib/os/Release/libsimplelink.a(socket.o)
 .debug_aranges
                0x0000000000000640       0xb0 ../../../simplelink/gcc/lib/os/Release/libsimplelink.a(wlan.o)
 .debug_aranges
                0x00000000000006f0       0xa8 ../../../simplelink/gcc/lib/os/Release/libsimplelink.a(cc_pal.o)
 .debug_aranges
                0x0000000000000798      0x110 ../../../oslib/gcc/free_rtos/Release/free_rtos.a(osi_freertos.o)
 .debug_aranges
                0x00000000000008a8      0x128 ../../../oslib/gcc/free_rtos/Release/free_rtos.a(queue.o)
 .debug_aranges
                0x00000000000009d0      0x1a8 ../../../oslib/gcc/free_rtos/Release/free_rtos.a(tasks.o)
 .debug_aranges
                0x0000000000000b78       0x70 ../../../oslib/gcc/free_rtos/Release/free_rtos.a(port.o)
 .debug_aranges
                0x0000000000000be8       0x28 ../../../oslib/gcc/free_rtos/Release/free_rtos.a(heap_3.o)
 .debug_aranges
                0x0000000000000c10       0x40 ../../../oslib/gcc/free_rtos/Release/free_rtos.a(list.o)
 .debug_aranges
                0x0000000000000c50       0x98 ../../../driverlib/gcc/lib/Release/libdriver.a(interrupt.o)
 .debug_aranges
                0x0000000000000ce8      0x198 ../../../driverlib/gcc/lib/Release/libdriver.a(prcm.o)
 .debug_aranges
                0x0000000000000e80       0xd0 ../../../driverlib/gcc/lib/Release/libdriver.a(spi.o)
 .debug_aranges
                0x0000000000000f50       0xd8 ../../../driverlib/gcc/lib/Release/libdriver.a(timer.o)
 .debug_aranges
                0x0000000000001028       0x20 ../../../driverlib/gcc/lib/Release/libdriver.a(utils.o)

.debug_ranges   0x0000000000000000     0x1b88
 .debug_ranges  0x0000000000000000       0x28 obj//Release/main.o
 .debug_ranges  0x0000000000000028       0x10 obj//Release/pinmux.o
 .debug_ranges  0x0000000000000038       0x50 obj//Release/conversions.o
 .debug_ranges  0x0000000000000088       0xd8 obj//Release/serial_wifi.o
 .debug_ranges  0x0000000000000160       0x20 obj//Release/uart_config.o
 .debug_ranges  0x0000000000000180       0xb8 obj//Release/network_if.o
 .debug_ranges  0x0000000000000238       0x48 obj//Release/uart_if.o
 .debug_ranges  0x0000000000000280       0x38 obj//Release/startup_gcc.o
 .debug_ranges  0x00000000000002b8       0xc8 ../../../simplelink/gcc/lib/os/Release/libsimplelink.a(device.o)
 .debug_ranges  0x0000000000000380      0x340 ../../../simplelink/gcc/lib/os/Release/libsimplelink.a(driver.o)
 .debug_ranges  0x00000000000006c0      0x128 ../../../simplelink/gcc/lib/os/Release/libsimplelink.a(netapp.o)
 .debug_ranges  0x00000000000007e8       0x38 ../../../simplelink/gcc/lib/os/Release/libsimplelink.a(netcfg.o)
 .debug_ranges  0x0000000000000820       0x88 ../../../simplelink/gcc/lib/os/Release/libsimplelink.a(fs.o)
 .debug_ranges  0x00000000000008a8      0x110 ../../../simplelink/gcc/lib/os/Release/libsimplelink.a(socket.o)
 .debug_ranges  0x00000000000009b8      0x160 ../../../simplelink/gcc/lib/os/Release/libsimplelink.a(wlan.o)
 .debug_ranges  0x0000000000000b18      0x108 ../../../simplelink/gcc/lib/os/Release/libsimplelink.a(cc_pal.o)
 .debug_ranges  0x0000000000000c20      0x100 ../../../oslib/gcc/free_rtos/Release/free_rtos.a(osi_freertos.o)
 .debug_ranges  0x0000000000000d20      0x2d0 ../../../oslib/gcc/free_rtos/Release/free_rtos.a(queue.o)
 .debug_ranges  0x0000000000000ff0      0x2f8 ../../../oslib/gcc/free_rtos/Release/free_rtos.a(tasks.o)
 .debug_ranges  0x00000000000012e8       0x78 ../../../oslib/gcc/free_rtos/Release/free_rtos.a(port.o)
 .debug_ranges  0x0000000000001360       0x18 ../../../oslib/gcc/free_rtos/Release/free_rtos.a(heap_3.o)
 .debug_ranges  0x0000000000001378       0x30 ../../../oslib/gcc/free_rtos/Release/free_rtos.a(list.o)
 .debug_ranges  0x00000000000013a8       0x88 ../../../driverlib/gcc/lib/Release/libdriver.a(interrupt.o)
 .debug_ranges  0x0000000000001430      0x538 ../../../driverlib/gcc/lib/Release/libdriver.a(prcm.o)
 .debug_ranges  0x0000000000001968      0x148 ../../../driverlib/gcc/lib/Release/libdriver.a(spi.o)
 .debug_ranges  0x0000000000001ab0       0xc8 ../../../driverlib/gcc/lib/Release/libdriver.a(timer.o)
 .debug_ranges  0x0000000000001b78       0x10 ../../../driverlib/gcc/lib/Release/libdriver.a(utils.o)

.debug_line     0x0000000000000000    0x10485
 .debug_line    0x0000000000000000      0x191 obj//Release/main.o
 .debug_line    0x0000000000000191       0x71 obj//Release/pinmux.o
 .debug_line    0x0000000000000202      0x30f obj//Release/conversions.o
 .debug_line    0x0000000000000511     0x24cb obj//Release/serial_wifi.o
 .debug_line    0x00000000000029dc      0x28e obj//Release/uart_config.o
 .debug_line    0x0000000000002c6a      0xd3a obj//Release/network_if.o
 .debug_line    0x00000000000039a4      0x3d7 obj//Release/uart_if.o
 .debug_line    0x0000000000003d7b      0x1f1 obj//Release/startup_gcc.o
 .debug_line    0x0000000000003f6c      0x71d ../../../simplelink/gcc/lib/os/Release/libsimplelink.a(device.o)
 .debug_line    0x0000000000004689     0x1941 ../../../simplelink/gcc/lib/os/Release/libsimplelink.a(driver.o)
 .debug_line    0x0000000000005fca      0xe68 ../../../simplelink/gcc/lib/os/Release/libsimplelink.a(netapp.o)
 .debug_line    0x0000000000006e32      0x24b ../../../simplelink/gcc/lib/os/Release/libsimplelink.a(netcfg.o)
 .debug_line    0x000000000000707d      0x76f ../../../simplelink/gcc/lib/os/Release/libsimplelink.a(fs.o)
 .debug_line    0x00000000000077ec     0x11b9 ../../../simplelink/gcc/lib/os/Release/libsimplelink.a(socket.o)
 .debug_line    0x00000000000089a5      0xfd1 ../../../simplelink/gcc/lib/os/Release/libsimplelink.a(wlan.o)
 .debug_line    0x0000000000009976      0x7a3 ../../../simplelink/gcc/lib/os/Release/libsimplelink.a(cc_pal.o)
 .debug_line    0x000000000000a119      0x743 ../../../oslib/gcc/free_rtos/Release/free_rtos.a(osi_freertos.o)
 .debug_line    0x000000000000a85c     0x12c8 ../../../oslib/gcc/free_rtos/Release/free_rtos.a(queue.o)
 .debug_line    0x000000000000bb24     0x1dbc ../../../oslib/gcc/free_rtos/Release/free_rtos.a(tasks.o)
 .debug_line    0x000000000000d8e0      0x384 ../../../oslib/gcc/free_rtos/Release/free_rtos.a(port.o)
 .debug_line    0x000000000000dc64      0x17d ../../../oslib/gcc/free_rtos/Release/free_rtos.a(heap_3.o)
 .debug_line    0x000000000000dde1      0x2e4 ../../../oslib/gcc/free_rtos/Release/free_rtos.a(list.o)
 .debug_line    0x000000000000e0c5      0x42f ../../../driverlib/gcc/lib/Release/libdriver.a(interrupt.o)
 .debug_line    0x000000000000e4f4     0x10c1 ../../../driverlib/gcc/lib/Release/libdriver.a(prcm.o)
 .debug_line    0x000000000000f5b5      0x941 ../../../driverlib/gcc/lib/Release/libdriver.a(spi.o)
 .debug_line    0x000000000000fef6      0x54d ../../../driverlib/gcc/lib/Release/libdriver.a(timer.o)
 .debug_line    0x0000000000010443       0x42 ../../../driverlib/gcc/lib/Release/libdriver.a(utils.o)

.debug_str      0x0000000000000000     0x793b
 .debug_str     0x0000000000000000      0x1dd obj//Release/main.o
                                        0x22c (size before relaxing)
 .debug_str     0x00000000000001dd       0x24 obj//Release/pinmux.o
                                        0x131 (size before relaxing)
 .debug_str     0x0000000000000201       0x90 obj//Release/conversions.o
                                        0x203 (size before relaxing)
 .debug_str     0x0000000000000291      0xf40 obj//Release/serial_wifi.o
                                       0x11a1 (size before relaxing)
 .debug_str     0x00000000000011d1       0x34 obj//Release/uart_config.o
                                        0x246 (size before relaxing)
 .debug_str     0x0000000000001205      0xc72 obj//Release/network_if.o
                                       0x12a1 (size before relaxing)
 .debug_str     0x0000000000001e77       0xe1 obj//Release/uart_if.o
                                        0x2ac (size before relaxing)
 .debug_str     0x0000000000001f58       0xcf obj//Release/startup_gcc.o
                                        0x26d (size before relaxing)
 .debug_str     0x0000000000002027      0xab5 ../../../simplelink/gcc/lib/os/Release/libsimplelink.a(device.o)
                                       0x1028 (size before relaxing)
 .debug_str     0x0000000000002adc      0x8e5 ../../../simplelink/gcc/lib/os/Release/libsimplelink.a(driver.o)
                                       0x1a6e (size before relaxing)
 .debug_str     0x00000000000033c1      0x846 ../../../simplelink/gcc/lib/os/Release/libsimplelink.a(netapp.o)
                                       0x1536 (size before relaxing)
 .debug_str     0x0000000000003c07       0x83 ../../../simplelink/gcc/lib/os/Release/libsimplelink.a(netcfg.o)
                                        0x4f9 (size before relaxing)
 .debug_str     0x0000000000003c8a      0x355 ../../../simplelink/gcc/lib/os/Release/libsimplelink.a(fs.o)
                                        0x751 (size before relaxing)
 .debug_str     0x0000000000003fdf      0x522 ../../../simplelink/gcc/lib/os/Release/libsimplelink.a(socket.o)
                                        0xff6 (size before relaxing)
 .debug_str     0x0000000000004501      0xc3e ../../../simplelink/gcc/lib/os/Release/libsimplelink.a(wlan.o)
                                       0x1187 (size before relaxing)
 .debug_str     0x000000000000513f      0x373 ../../../simplelink/gcc/lib/os/Release/libsimplelink.a(cc_pal.o)
                                        0x5f2 (size before relaxing)
 .debug_str     0x00000000000054b2      0x3b4 ../../../oslib/gcc/free_rtos/Release/free_rtos.a(osi_freertos.o)
                                        0x7c9 (size before relaxing)
 .debug_str     0x0000000000005866      0x7bc ../../../oslib/gcc/free_rtos/Release/free_rtos.a(queue.o)
                                        0xad4 (size before relaxing)
 .debug_str     0x0000000000006022      0xb7e ../../../oslib/gcc/free_rtos/Release/free_rtos.a(tasks.o)
                                       0x10e3 (size before relaxing)
 .debug_str     0x0000000000006ba0       0xd6 ../../../oslib/gcc/free_rtos/Release/free_rtos.a(port.o)
                                        0x361 (size before relaxing)
 .debug_str     0x0000000000006c76       0x51 ../../../oslib/gcc/free_rtos/Release/free_rtos.a(heap_3.o)
                                        0x212 (size before relaxing)
 .debug_str     0x0000000000006cc7       0x6a ../../../oslib/gcc/free_rtos/Release/free_rtos.a(list.o)
                                        0x2d7 (size before relaxing)
 .debug_str     0x0000000000006d31      0x1e1 ../../../driverlib/gcc/lib/Release/libdriver.a(interrupt.o)
                                        0x303 (size before relaxing)
 .debug_str     0x0000000000006f12      0x5c9 ../../../driverlib/gcc/lib/Release/libdriver.a(prcm.o)
                                        0x7bb (size before relaxing)
 .debug_str     0x00000000000074db      0x2af ../../../driverlib/gcc/lib/Release/libdriver.a(spi.o)
                                        0x489 (size before relaxing)
 .debug_str     0x000000000000778a      0x1a6 ../../../driverlib/gcc/lib/Release/libdriver.a(timer.o)
                                        0x319 (size before relaxing)
 .debug_str     0x0000000000007930        0xb ../../../driverlib/gcc/lib/Release/libdriver.a(utils.o)
                                        0x106 (size before relaxing)

.comment        0x0000000000000000       0x49
 .comment       0x0000000000000000       0x49 obj//Release/main.o
                                         0x4a (size before relaxing)
 .comment       0x0000000000000049       0x4a obj//Release/pinmux.o
 .comment       0x0000000000000049       0x4a obj//Release/conversions.o
 .comment       0x0000000000000049       0x4a obj//Release/serial_wifi.o
 .comment       0x0000000000000049       0x4a obj//Release/uart_config.o
 .comment       0x0000000000000049       0x4a obj//Release/network_if.o
 .comment       0x0000000000000049       0x4a obj//Release/uart_if.o
 .comment       0x0000000000000049       0x4a obj//Release/startup_gcc.o
 .comment       0x0000000000000049       0x4a ../../../simplelink/gcc/lib/os/Release/libsimplelink.a(device.o)
 .comment       0x0000000000000049       0x4a ../../../simplelink/gcc/lib/os/Release/libsimplelink.a(driver.o)
 .comment       0x0000000000000049       0x4a ../../../simplelink/gcc/lib/os/Release/libsimplelink.a(netapp.o)
 .comment       0x0000000000000049       0x4a ../../../simplelink/gcc/lib/os/Release/libsimplelink.a(netcfg.o)
 .comment       0x0000000000000049       0x4a ../../../simplelink/gcc/lib/os/Release/libsimplelink.a(fs.o)
 .comment       0x0000000000000049       0x4a ../../../simplelink/gcc/lib/os/Release/libsimplelink.a(socket.o)
 .comment       0x0000000000000049       0x4a ../../../simplelink/gcc/lib/os/Release/libsimplelink.a(wlan.o)
 .comment       0x0000000000000049       0x4a ../../../simplelink/gcc/lib/os/Release/libsimplelink.a(cc_pal.o)
 .comment       0x0000000000000049       0x4a ../../../oslib/gcc/free_rtos/Release/free_rtos.a(osi_freertos.o)
 .comment       0x0000000000000049       0x4a ../../../oslib/gcc/free_rtos/Release/free_rtos.a(queue.o)
 .comment       0x0000000000000049       0x4a ../../../oslib/gcc/free_rtos/Release/free_rtos.a(tasks.o)
 .comment       0x0000000000000049       0x4a ../../../oslib/gcc/free_rtos/Release/free_rtos.a(port.o)
 .comment       0x0000000000000049       0x4a ../../../oslib/gcc/free_rtos/Release/free_rtos.a(heap_3.o)
 .comment       0x0000000000000049       0x4a ../../../oslib/gcc/free_rtos/Release/free_rtos.a(list.o)
 .comment       0x0000000000000049       0x4a ../../../driverlib/gcc/lib/Release/libdriver.a(interrupt.o)
 .comment       0x0000000000000049       0x4a ../../../driverlib/gcc/lib/Release/libdriver.a(prcm.o)
 .comment       0x0000000000000049       0x4a ../../../driverlib/gcc/lib/Release/libdriver.a(spi.o)
 .comment       0x0000000000000049       0x4a ../../../driverlib/gcc/lib/Release/libdriver.a(timer.o)
 .comment       0x0000000000000049       0x4a ../../../driverlib/gcc/lib/Release/libdriver.a(utils.o)

.ARM.attributes
                0x0000000000000000       0x2c
 .ARM.attributes
                0x0000000000000000       0x2e obj//Release/main.o
 .ARM.attributes
                0x000000000000002e       0x2e obj//Release/pinmux.o
 .ARM.attributes
                0x000000000000005c       0x2e obj//Release/conversions.o
 .ARM.attributes
                0x000000000000008a       0x2e obj//Release/serial_wifi.o
 .ARM.attributes
                0x00000000000000b8       0x2e obj//Release/uart_config.o
 .ARM.attributes
                0x00000000000000e6       0x2e obj//Release/network_if.o
 .ARM.attributes
                0x0000000000000114       0x2e obj//Release/uart_if.o
 .ARM.attributes
                0x0000000000000142       0x2e obj//Release/startup_gcc.o
 .ARM.attributes
                0x0000000000000170       0x2e ../../../simplelink/gcc/lib/os/Release/libsimplelink.a(device.o)
 .ARM.attributes
                0x000000000000019e       0x2e ../../../simplelink/gcc/lib/os/Release/libsimplelink.a(driver.o)
 .ARM.attributes
                0x00000000000001cc       0x2e ../../../simplelink/gcc/lib/os/Release/libsimplelink.a(netapp.o)
 .ARM.attributes
                0x00000000000001fa       0x2e ../../../simplelink/gcc/lib/os/Release/libsimplelink.a(netcfg.o)
 .ARM.attributes
                0x0000000000000228       0x2e ../../../simplelink/gcc/lib/os/Release/libsimplelink.a(fs.o)
 .ARM.attributes
                0x0000000000000256       0x2e ../../../simplelink/gcc/lib/os/Release/libsimplelink.a(socket.o)
 .ARM.attributes
                0x0000000000000284       0x2e ../../../simplelink/gcc/lib/os/Release/libsimplelink.a(wlan.o)
 .ARM.attributes
                0x00000000000002b2       0x2e ../../../simplelink/gcc/lib/os/Release/libsimplelink.a(cc_pal.o)
 .ARM.attributes
                0x00000000000002e0       0x2e ../../../oslib/gcc/free_rtos/Release/free_rtos.a(osi_freertos.o)
 .ARM.attributes
                0x000000000000030e       0x2e ../../../oslib/gcc/free_rtos/Release/free_rtos.a(queue.o)
 .ARM.attributes
                0x000000000000033c       0x2e ../../../oslib/gcc/free_rtos/Release/free_rtos.a(tasks.o)
 .ARM.attributes
                0x000000000000036a       0x2e ../../../oslib/gcc/free_rtos/Release/free_rtos.a(port.o)
 .ARM.attributes
                0x0000000000000398       0x2e ../../../oslib/gcc/free_rtos/Release/free_rtos.a(heap_3.o)
 .ARM.attributes
                0x00000000000003c6       0x2e ../../../oslib/gcc/free_rtos/Release/free_rtos.a(list.o)
 .ARM.attributes
                0x00000000000003f4       0x2e ../../../driverlib/gcc/lib/Release/libdriver.a(interrupt.o)
 .ARM.attributes
                0x0000000000000422       0x2e ../../../driverlib/gcc/lib/Release/libdriver.a(prcm.o)
 .ARM.attributes
                0x0000000000000450       0x2e ../../../driverlib/gcc/lib/Release/libdriver.a(spi.o)
 .ARM.attributes
                0x000000000000047e       0x2e ../../../driverlib/gcc/lib/Release/libdriver.a(timer.o)
 .ARM.attributes
                0x00000000000004ac       0x2e ../../../driverlib/gcc/lib/Release/libdriver.a(utils.o)
 .ARM.attributes
                0x00000000000004da       0x2e /Applications/ARM/bin/../lib/gcc/arm-none-eabi/10.3.1/../../../../arm-none-eabi/lib/thumb/v7e-m/nofp/libc_nano.a(lib_a-malloc.o)
 .ARM.attributes
                0x0000000000000508       0x2e /Applications/ARM/bin/../lib/gcc/arm-none-eabi/10.3.1/../../../../arm-none-eabi/lib/thumb/v7e-m/nofp/libc_nano.a(lib_a-memcpy-stub.o)
 .ARM.attributes
                0x0000000000000536       0x2e /Applications/ARM/bin/../lib/gcc/arm-none-eabi/10.3.1/../../../../arm-none-eabi/lib/thumb/v7e-m/nofp/libc_nano.a(lib_a-memmove.o)
 .ARM.attributes
                0x0000000000000564       0x2e /Applications/ARM/bin/../lib/gcc/arm-none-eabi/10.3.1/../../../../arm-none-eabi/lib/thumb/v7e-m/nofp/libc_nano.a(lib_a-memset.o)
 .ARM.attributes
                0x0000000000000592       0x2e /Applications/ARM/bin/../lib/gcc/arm-none-eabi/10.3.1/../../../../arm-none-eabi/lib/thumb/v7e-m/nofp/libc_nano.a(lib_a-nano-freer.o)
 .ARM.attributes
                0x00000000000005c0       0x2e /Applications/ARM/bin/../lib/gcc/arm-none-eabi/10.3.1/../../../../arm-none-eabi/lib/thumb/v7e-m/nofp/libc_nano.a(lib_a-nano-mallocr.o)
 .ARM.attributes
                0x00000000000005ee       0x2e /Applications/ARM/bin/../lib/gcc/arm-none-eabi/10.3.1/../../../../arm-none-eabi/lib/thumb/v7e-m/nofp/libc_nano.a(lib_a-realloc.o)
 .ARM.attributes
                0x000000000000061c       0x2e /Applications/ARM/bin/../lib/gcc/arm-none-eabi/10.3.1/../../../../arm-none-eabi/lib/thumb/v7e-m/nofp/libc_nano.a(lib_a-sbrkr.o)
 .ARM.attributes
                0x000000000000064a       0x2e /Applications/ARM/bin/../lib/gcc/arm-none-eabi/10.3.1/../../../../arm-none-eabi/lib/thumb/v7e-m/nofp/libc_nano.a(lib_a-strchr.o)
 .ARM.attributes
                0x0000000000000678       0x1c /Applications/ARM/bin/../lib/gcc/arm-none-eabi/10.3.1/../../../../arm-none-eabi/lib/thumb/v7e-m/nofp/libc_nano.a(lib_a-strcmp.o)
 .ARM.attributes
                0x0000000000000694       0x2e /Applications/ARM/bin/../lib/gcc/arm-none-eabi/10.3.1/../../../../arm-none-eabi/lib/thumb/v7e-m/nofp/libc_nano.a(lib_a-strcpy.o)
 .ARM.attributes
                0x00000000000006c2       0x17 /Applications/ARM/bin/../lib/gcc/arm-none-eabi/10.3.1/../../../../arm-none-eabi/lib/thumb/v7e-m/nofp/libc_nano.a(lib_a-strlen.o)
 .ARM.attributes
                0x00000000000006d9       0x2e /Applications/ARM/bin/../lib/gcc/arm-none-eabi/10.3.1/../../../../arm-none-eabi/lib/thumb/v7e-m/nofp/libc_nano.a(lib_a-strncpy.o)
 .ARM.attributes
                0x0000000000000707       0x2e /Applications/ARM/bin/../lib/gcc/arm-none-eabi/10.3.1/../../../../arm-none-eabi/lib/thumb/v7e-m/nofp/libc_nano.a(lib_a-strstr.o)
 .ARM.attributes
                0x0000000000000735       0x2e /Applications/ARM/bin/../lib/gcc/arm-none-eabi/10.3.1/../../../../arm-none-eabi/lib/thumb/v7e-m/nofp/libc_nano.a(lib_a-strtok.o)
 .ARM.attributes
                0x0000000000000763       0x2e /Applications/ARM/bin/../lib/gcc/arm-none-eabi/10.3.1/../../../../arm-none-eabi/lib/thumb/v7e-m/nofp/libc_nano.a(lib_a-strtok_r.o)
 .ARM.attributes
                0x0000000000000791       0x2e /Applications/ARM/bin/../lib/gcc/arm-none-eabi/10.3.1/../../../../arm-none-eabi/lib/thumb/v7e-m/nofp/libc_nano.a(lib_a-strtol.o)
 .ARM.attributes
                0x00000000000007bf       0x2e /Applications/ARM/bin/../lib/gcc/arm-none-eabi/10.3.1/../../../../arm-none-eabi/lib/thumb/v7e-m/nofp/libc_nano.a(lib_a-vsnprintf.o)
 .ARM.attributes
                0x00000000000007ed       0x2e /Applications/ARM/bin/../lib/gcc/arm-none-eabi/10.3.1/../../../../arm-none-eabi/lib/thumb/v7e-m/nofp/libc_nano.a(lib_a-assert.o)
 .ARM.attributes
                0x000000000000081b       0x2e /Applications/ARM/bin/../lib/gcc/arm-none-eabi/10.3.1/../../../../arm-none-eabi/lib/thumb/v7e-m/nofp/libc_nano.a(lib_a-ctype_.o)
 .ARM.attributes
                0x0000000000000849       0x2e /Applications/ARM/bin/../lib/gcc/arm-none-eabi/10.3.1/../../../../arm-none-eabi/lib/thumb/v7e-m/nofp/libc_nano.a(lib_a-errno.o)
 .ARM.attributes
                0x0000000000000877       0x2e /Applications/ARM/bin/../lib/gcc/arm-none-eabi/10.3.1/../../../../arm-none-eabi/lib/thumb/v7e-m/nofp/libc_nano.a(lib_a-fprintf.o)
 .ARM.attributes
                0x00000000000008a5       0x2e /Applications/ARM/bin/../lib/gcc/arm-none-eabi/10.3.1/../../../../arm-none-eabi/lib/thumb/v7e-m/nofp/libc_nano.a(lib_a-impure.o)
 .ARM.attributes
                0x00000000000008d3       0x2e /Applications/ARM/bin/../lib/gcc/arm-none-eabi/10.3.1/../../../../arm-none-eabi/lib/thumb/v7e-m/nofp/libc_nano.a(lib_a-mlock.o)
 .ARM.attributes
                0x0000000000000901       0x2e /Applications/ARM/bin/../lib/gcc/arm-none-eabi/10.3.1/../../../../arm-none-eabi/lib/thumb/v7e-m/nofp/libc_nano.a(lib_a-nano-reallocr.o)
 .ARM.attributes
                0x000000000000092f       0x2e /Applications/ARM/bin/../lib/gcc/arm-none-eabi/10.3.1/../../../../arm-none-eabi/lib/thumb/v7e-m/nofp/libc_nano.a(lib_a-nano-svfprintf.o)
 .ARM.attributes
                0x000000000000095d       0x2e /Applications/ARM/bin/../lib/gcc/arm-none-eabi/10.3.1/../../../../arm-none-eabi/lib/thumb/v7e-m/nofp/libc_nano.a(lib_a-nano-vfprintf.o)
 .ARM.attributes
                0x000000000000098b       0x2e /Applications/ARM/bin/../lib/gcc/arm-none-eabi/10.3.1/../../../../arm-none-eabi/lib/thumb/v7e-m/nofp/libc_nano.a(lib_a-nano-vfprintf_i.o)
 .ARM.attributes
                0x00000000000009b9       0x2e /Applications/ARM/bin/../lib/gcc/arm-none-eabi/10.3.1/../../../../arm-none-eabi/lib/thumb/v7e-m/nofp/libc_nano.a(lib_a-reent.o)
 .ARM.attributes
                0x00000000000009e7       0x2e /Applications/ARM/bin/../lib/gcc/arm-none-eabi/10.3.1/../../../../arm-none-eabi/lib/thumb/v7e-m/nofp/libc_nano.a(lib_a-wbuf.o)
 .ARM.attributes
                0x0000000000000a15       0x2e /Applications/ARM/bin/../lib/gcc/arm-none-eabi/10.3.1/../../../../arm-none-eabi/lib/thumb/v7e-m/nofp/libc_nano.a(lib_a-wsetup.o)
 .ARM.attributes
                0x0000000000000a43       0x2e /Applications/ARM/bin/../lib/gcc/arm-none-eabi/10.3.1/../../../../arm-none-eabi/lib/thumb/v7e-m/nofp/libc_nano.a(lib_a-abort.o)
 .ARM.attributes
                0x0000000000000a71       0x2e /Applications/ARM/bin/../lib/gcc/arm-none-eabi/10.3.1/../../../../arm-none-eabi/lib/thumb/v7e-m/nofp/libc_nano.a(lib_a-fflush.o)
 .ARM.attributes
                0x0000000000000a9f       0x2e /Applications/ARM/bin/../lib/gcc/arm-none-eabi/10.3.1/../../../../arm-none-eabi/lib/thumb/v7e-m/nofp/libc_nano.a(lib_a-findfp.o)
 .ARM.attributes
                0x0000000000000acd       0x2e /Applications/ARM/bin/../lib/gcc/arm-none-eabi/10.3.1/../../../../arm-none-eabi/lib/thumb/v7e-m/nofp/libc_nano.a(lib_a-fwalk.o)
 .ARM.attributes
                0x0000000000000afb       0x2e /Applications/ARM/bin/../lib/gcc/arm-none-eabi/10.3.1/../../../../arm-none-eabi/lib/thumb/v7e-m/nofp/libc_nano.a(lib_a-lock.o)
 .ARM.attributes
                0x0000000000000b29       0x2e /Applications/ARM/bin/../lib/gcc/arm-none-eabi/10.3.1/../../../../arm-none-eabi/lib/thumb/v7e-m/nofp/libc_nano.a(lib_a-makebuf.o)
 .ARM.attributes
                0x0000000000000b57       0x1c /Applications/ARM/bin/../lib/gcc/arm-none-eabi/10.3.1/../../../../arm-none-eabi/lib/thumb/v7e-m/nofp/libc_nano.a(lib_a-memchr.o)
 .ARM.attributes
                0x0000000000000b73       0x2e /Applications/ARM/bin/../lib/gcc/arm-none-eabi/10.3.1/../../../../arm-none-eabi/lib/thumb/v7e-m/nofp/libc_nano.a(lib_a-nano-msizer.o)
 .ARM.attributes
                0x0000000000000ba1       0x2e /Applications/ARM/bin/../lib/gcc/arm-none-eabi/10.3.1/../../../../arm-none-eabi/lib/thumb/v7e-m/nofp/libc_nano.a(lib_a-signal.o)
 .ARM.attributes
                0x0000000000000bcf       0x2e /Applications/ARM/bin/../lib/gcc/arm-none-eabi/10.3.1/../../../../arm-none-eabi/lib/thumb/v7e-m/nofp/libc_nano.a(lib_a-signalr.o)
 .ARM.attributes
                0x0000000000000bfd       0x2e /Applications/ARM/bin/../lib/gcc/arm-none-eabi/10.3.1/../../../../arm-none-eabi/lib/thumb/v7e-m/nofp/libc_nano.a(lib_a-stdio.o)
 .ARM.attributes
                0x0000000000000c2b       0x2e /Applications/ARM/bin/../lib/gcc/arm-none-eabi/10.3.1/../../../../arm-none-eabi/lib/thumb/v7e-m/nofp/libc_nano.a(lib_a-writer.o)
 .ARM.attributes
                0x0000000000000c59       0x2e /Applications/ARM/bin/../lib/gcc/arm-none-eabi/10.3.1/../../../../arm-none-eabi/lib/thumb/v7e-m/nofp/libc_nano.a(lib_a-closer.o)
 .ARM.attributes
                0x0000000000000c87       0x2e /Applications/ARM/bin/../lib/gcc/arm-none-eabi/10.3.1/../../../../arm-none-eabi/lib/thumb/v7e-m/nofp/libc_nano.a(lib_a-fstatr.o)
 .ARM.attributes
                0x0000000000000cb5       0x2e /Applications/ARM/bin/../lib/gcc/arm-none-eabi/10.3.1/../../../../arm-none-eabi/lib/thumb/v7e-m/nofp/libc_nano.a(lib_a-isattyr.o)
 .ARM.attributes
                0x0000000000000ce3       0x2e /Applications/ARM/bin/../lib/gcc/arm-none-eabi/10.3.1/../../../../arm-none-eabi/lib/thumb/v7e-m/nofp/libc_nano.a(lib_a-lseekr.o)
 .ARM.attributes
                0x0000000000000d11       0x2e /Applications/ARM/bin/../lib/gcc/arm-none-eabi/10.3.1/../../../../arm-none-eabi/lib/thumb/v7e-m/nofp/libc_nano.a(lib_a-readr.o)
 .ARM.attributes
                0x0000000000000d3f       0x2e /Applications/ARM/bin/../lib/gcc/arm-none-eabi/10.3.1/../../../../arm-none-eabi/lib/thumb/v7e-m/nofp/libnosys.a(close.o)
 .ARM.attributes
                0x0000000000000d6d       0x2e /Applications/ARM/bin/../lib/gcc/arm-none-eabi/10.3.1/../../../../arm-none-eabi/lib/thumb/v7e-m/nofp/libnosys.a(fstat.o)
 .ARM.attributes
                0x0000000000000d9b       0x2e /Applications/ARM/bin/../lib/gcc/arm-none-eabi/10.3.1/../../../../arm-none-eabi/lib/thumb/v7e-m/nofp/libnosys.a(getpid.o)
 .ARM.attributes
                0x0000000000000dc9       0x2e /Applications/ARM/bin/../lib/gcc/arm-none-eabi/10.3.1/../../../../arm-none-eabi/lib/thumb/v7e-m/nofp/libnosys.a(isatty.o)
 .ARM.attributes
                0x0000000000000df7       0x2e /Applications/ARM/bin/../lib/gcc/arm-none-eabi/10.3.1/../../../../arm-none-eabi/lib/thumb/v7e-m/nofp/libnosys.a(kill.o)
 .ARM.attributes
                0x0000000000000e25       0x2e /Applications/ARM/bin/../lib/gcc/arm-none-eabi/10.3.1/../../../../arm-none-eabi/lib/thumb/v7e-m/nofp/libnosys.a(lseek.o)
 .ARM.attributes
                0x0000000000000e53       0x2e /Applications/ARM/bin/../lib/gcc/arm-none-eabi/10.3.1/../../../../arm-none-eabi/lib/thumb/v7e-m/nofp/libnosys.a(read.o)
 .ARM.attributes
                0x0000000000000e81       0x2e /Applications/ARM/bin/../lib/gcc/arm-none-eabi/10.3.1/../../../../arm-none-eabi/lib/thumb/v7e-m/nofp/libnosys.a(write.o)
 .ARM.attributes
                0x0000000000000eaf       0x2e /Applications/ARM/bin/../lib/gcc/arm-none-eabi/10.3.1/../../../../arm-none-eabi/lib/thumb/v7e-m/nofp/libnosys.a(_exit.o)

.debug_frame    0x0000000000000000     0x3dc4
 .debug_frame   0x0000000000000000       0x2c obj//Release/main.o
 .debug_frame   0x000000000000002c       0x2c obj//Release/pinmux.o
 .debug_frame   0x0000000000000058       0xac obj//Release/conversions.o
 .debug_frame   0x0000000000000104      0x20c obj//Release/serial_wifi.o
 .debug_frame   0x0000000000000310       0x70 obj//Release/uart_config.o
 .debug_frame   0x0000000000000380      0x234 obj//Release/network_if.o
 .debug_frame   0x00000000000005b4      0x128 obj//Release/uart_if.o
 .debug_frame   0x00000000000006dc       0x7c obj//Release/startup_gcc.o
 .debug_frame   0x0000000000000758      0x160 ../../../simplelink/gcc/lib/os/Release/libsimplelink.a(device.o)
 .debug_frame   0x00000000000008b8      0x438 ../../../simplelink/gcc/lib/os/Release/libsimplelink.a(driver.o)
 .debug_frame   0x0000000000000cf0      0x254 ../../../simplelink/gcc/lib/os/Release/libsimplelink.a(netapp.o)
 .debug_frame   0x0000000000000f44       0x60 ../../../simplelink/gcc/lib/os/Release/libsimplelink.a(netcfg.o)
 .debug_frame   0x0000000000000fa4      0x134 ../../../simplelink/gcc/lib/os/Release/libsimplelink.a(fs.o)
 .debug_frame   0x00000000000010d8      0x2f4 ../../../simplelink/gcc/lib/os/Release/libsimplelink.a(socket.o)
 .debug_frame   0x00000000000013cc      0x288 ../../../simplelink/gcc/lib/os/Release/libsimplelink.a(wlan.o)
 .debug_frame   0x0000000000001654      0x240 ../../../simplelink/gcc/lib/os/Release/libsimplelink.a(cc_pal.o)
 .debug_frame   0x0000000000001894      0x2f8 ../../../oslib/gcc/free_rtos/Release/free_rtos.a(osi_freertos.o)
 .debug_frame   0x0000000000001b8c      0x3a0 ../../../oslib/gcc/free_rtos/Release/free_rtos.a(queue.o)
 .debug_frame   0x0000000000001f2c      0x57c ../../../oslib/gcc/free_rtos/Release/free_rtos.a(tasks.o)
 .debug_frame   0x00000000000024a8       0xd8 ../../../oslib/gcc/free_rtos/Release/free_rtos.a(port.o)
 .debug_frame   0x0000000000002580       0x48 ../../../oslib/gcc/free_rtos/Release/free_rtos.a(heap_3.o)
 .debug_frame   0x00000000000025c8       0x6c ../../../oslib/gcc/free_rtos/Release/free_rtos.a(list.o)
 .debug_frame   0x0000000000002634      0x128 ../../../driverlib/gcc/lib/Release/libdriver.a(interrupt.o)
 .debug_frame   0x000000000000275c      0x4a0 ../../../driverlib/gcc/lib/Release/libdriver.a(prcm.o)
 .debug_frame   0x0000000000002bfc      0x204 ../../../driverlib/gcc/lib/Release/libdriver.a(spi.o)
 .debug_frame   0x0000000000002e00      0x1c0 ../../../driverlib/gcc/lib/Release/libdriver.a(timer.o)
 .debug_frame   0x0000000000002fc0       0x20 ../../../driverlib/gcc/lib/Release/libdriver.a(utils.o)
 .debug_frame   0x0000000000002fe0       0x30 /Applications/ARM/bin/../lib/gcc/arm-none-eabi/10.3.1/../../../../arm-none-eabi/lib/thumb/v7e-m/nofp/libc_nano.a(lib_a-malloc.o)
 .debug_frame   0x0000000000003010       0x28 /Applications/ARM/bin/../lib/gcc/arm-none-eabi/10.3.1/../../../../arm-none-eabi/lib/thumb/v7e-m/nofp/libc_nano.a(lib_a-memcpy-stub.o)
 .debug_frame   0x0000000000003038       0x28 /Applications/ARM/bin/../lib/gcc/arm-none-eabi/10.3.1/../../../../arm-none-eabi/lib/thumb/v7e-m/nofp/libc_nano.a(lib_a-memmove.o)
 .debug_frame   0x0000000000003060       0x20 /Applications/ARM/bin/../lib/gcc/arm-none-eabi/10.3.1/../../../../arm-none-eabi/lib/thumb/v7e-m/nofp/libc_nano.a(lib_a-memset.o)
 .debug_frame   0x0000000000003080       0x38 /Applications/ARM/bin/../lib/gcc/arm-none-eabi/10.3.1/../../../../arm-none-eabi/lib/thumb/v7e-m/nofp/libc_nano.a(lib_a-nano-freer.o)
 .debug_frame   0x00000000000030b8       0x4c /Applications/ARM/bin/../lib/gcc/arm-none-eabi/10.3.1/../../../../arm-none-eabi/lib/thumb/v7e-m/nofp/libc_nano.a(lib_a-nano-mallocr.o)
 .debug_frame   0x0000000000003104       0x20 /Applications/ARM/bin/../lib/gcc/arm-none-eabi/10.3.1/../../../../arm-none-eabi/lib/thumb/v7e-m/nofp/libc_nano.a(lib_a-realloc.o)
 .debug_frame   0x0000000000003124       0x2c /Applications/ARM/bin/../lib/gcc/arm-none-eabi/10.3.1/../../../../arm-none-eabi/lib/thumb/v7e-m/nofp/libc_nano.a(lib_a-sbrkr.o)
 .debug_frame   0x0000000000003150       0x20 /Applications/ARM/bin/../lib/gcc/arm-none-eabi/10.3.1/../../../../arm-none-eabi/lib/thumb/v7e-m/nofp/libc_nano.a(lib_a-strchr.o)
 .debug_frame   0x0000000000003170       0x20 /Applications/ARM/bin/../lib/gcc/arm-none-eabi/10.3.1/../../../../arm-none-eabi/lib/thumb/v7e-m/nofp/libc_nano.a(lib_a-strcmp.o)
 .debug_frame   0x0000000000003190       0x20 /Applications/ARM/bin/../lib/gcc/arm-none-eabi/10.3.1/../../../../arm-none-eabi/lib/thumb/v7e-m/nofp/libc_nano.a(lib_a-strcpy.o)
 .debug_frame   0x00000000000031b0       0x28 /Applications/ARM/bin/../lib/gcc/arm-none-eabi/10.3.1/../../../../arm-none-eabi/lib/thumb/v7e-m/nofp/libc_nano.a(lib_a-strncpy.o)
 .debug_frame   0x00000000000031d8       0x2c /Applications/ARM/bin/../lib/gcc/arm-none-eabi/10.3.1/../../../../arm-none-eabi/lib/thumb/v7e-m/nofp/libc_nano.a(lib_a-strstr.o)
 .debug_frame   0x0000000000003204       0x38 /Applications/ARM/bin/../lib/gcc/arm-none-eabi/10.3.1/../../../../arm-none-eabi/lib/thumb/v7e-m/nofp/libc_nano.a(lib_a-strtok.o)
 .debug_frame   0x000000000000323c       0x40 /Applications/ARM/bin/../lib/gcc/arm-none-eabi/10.3.1/../../../../arm-none-eabi/lib/thumb/v7e-m/nofp/libc_nano.a(lib_a-strtok_r.o)
 .debug_frame   0x000000000000327c       0x64 /Applications/ARM/bin/../lib/gcc/arm-none-eabi/10.3.1/../../../../arm-none-eabi/lib/thumb/v7e-m/nofp/libc_nano.a(lib_a-strtol.o)
 .debug_frame   0x00000000000032e0       0x4c /Applications/ARM/bin/../lib/gcc/arm-none-eabi/10.3.1/../../../../arm-none-eabi/lib/thumb/v7e-m/nofp/libc_nano.a(lib_a-vsnprintf.o)
 .debug_frame   0x000000000000332c       0x40 /Applications/ARM/bin/../lib/gcc/arm-none-eabi/10.3.1/../../../../arm-none-eabi/lib/thumb/v7e-m/nofp/libc_nano.a(lib_a-assert.o)
 .debug_frame   0x000000000000336c       0x20 /Applications/ARM/bin/../lib/gcc/arm-none-eabi/10.3.1/../../../../arm-none-eabi/lib/thumb/v7e-m/nofp/libc_nano.a(lib_a-errno.o)
 .debug_frame   0x000000000000338c       0x64 /Applications/ARM/bin/../lib/gcc/arm-none-eabi/10.3.1/../../../../arm-none-eabi/lib/thumb/v7e-m/nofp/libc_nano.a(lib_a-fprintf.o)
 .debug_frame   0x00000000000033f0       0x30 /Applications/ARM/bin/../lib/gcc/arm-none-eabi/10.3.1/../../../../arm-none-eabi/lib/thumb/v7e-m/nofp/libc_nano.a(lib_a-mlock.o)
 .debug_frame   0x0000000000003420       0x3c /Applications/ARM/bin/../lib/gcc/arm-none-eabi/10.3.1/../../../../arm-none-eabi/lib/thumb/v7e-m/nofp/libc_nano.a(lib_a-nano-reallocr.o)
 .debug_frame   0x000000000000345c       0x90 /Applications/ARM/bin/../lib/gcc/arm-none-eabi/10.3.1/../../../../arm-none-eabi/lib/thumb/v7e-m/nofp/libc_nano.a(lib_a-nano-svfprintf.o)
 .debug_frame   0x00000000000034ec       0xac /Applications/ARM/bin/../lib/gcc/arm-none-eabi/10.3.1/../../../../arm-none-eabi/lib/thumb/v7e-m/nofp/libc_nano.a(lib_a-nano-vfprintf.o)
 .debug_frame   0x0000000000003598       0x60 /Applications/ARM/bin/../lib/gcc/arm-none-eabi/10.3.1/../../../../arm-none-eabi/lib/thumb/v7e-m/nofp/libc_nano.a(lib_a-nano-vfprintf_i.o)
 .debug_frame   0x00000000000035f8       0x5c /Applications/ARM/bin/../lib/gcc/arm-none-eabi/10.3.1/../../../../arm-none-eabi/lib/thumb/v7e-m/nofp/libc_nano.a(lib_a-reent.o)
 .debug_frame   0x0000000000003654       0x40 /Applications/ARM/bin/../lib/gcc/arm-none-eabi/10.3.1/../../../../arm-none-eabi/lib/thumb/v7e-m/nofp/libc_nano.a(lib_a-wbuf.o)
 .debug_frame   0x0000000000003694       0x2c /Applications/ARM/bin/../lib/gcc/arm-none-eabi/10.3.1/../../../../arm-none-eabi/lib/thumb/v7e-m/nofp/libc_nano.a(lib_a-wsetup.o)
 .debug_frame   0x00000000000036c0       0x28 /Applications/ARM/bin/../lib/gcc/arm-none-eabi/10.3.1/../../../../arm-none-eabi/lib/thumb/v7e-m/nofp/libc_nano.a(lib_a-abort.o)
 .debug_frame   0x00000000000036e8       0x5c /Applications/ARM/bin/../lib/gcc/arm-none-eabi/10.3.1/../../../../arm-none-eabi/lib/thumb/v7e-m/nofp/libc_nano.a(lib_a-fflush.o)
 .debug_frame   0x0000000000003744      0x14c /Applications/ARM/bin/../lib/gcc/arm-none-eabi/10.3.1/../../../../arm-none-eabi/lib/thumb/v7e-m/nofp/libc_nano.a(lib_a-findfp.o)
 .debug_frame   0x0000000000003890       0x54 /Applications/ARM/bin/../lib/gcc/arm-none-eabi/10.3.1/../../../../arm-none-eabi/lib/thumb/v7e-m/nofp/libc_nano.a(lib_a-fwalk.o)
 .debug_frame   0x00000000000038e4       0xb0 /Applications/ARM/bin/../lib/gcc/arm-none-eabi/10.3.1/../../../../arm-none-eabi/lib/thumb/v7e-m/nofp/libc_nano.a(lib_a-lock.o)
 .debug_frame   0x0000000000003994       0x58 /Applications/ARM/bin/../lib/gcc/arm-none-eabi/10.3.1/../../../../arm-none-eabi/lib/thumb/v7e-m/nofp/libc_nano.a(lib_a-makebuf.o)
 .debug_frame   0x00000000000039ec       0x20 /Applications/ARM/bin/../lib/gcc/arm-none-eabi/10.3.1/../../../../arm-none-eabi/lib/thumb/v7e-m/nofp/libc_nano.a(lib_a-nano-msizer.o)
 .debug_frame   0x0000000000003a0c       0xcc /Applications/ARM/bin/../lib/gcc/arm-none-eabi/10.3.1/../../../../arm-none-eabi/lib/thumb/v7e-m/nofp/libc_nano.a(lib_a-signal.o)
 .debug_frame   0x0000000000003ad8       0x3c /Applications/ARM/bin/../lib/gcc/arm-none-eabi/10.3.1/../../../../arm-none-eabi/lib/thumb/v7e-m/nofp/libc_nano.a(lib_a-signalr.o)
 .debug_frame   0x0000000000003b14       0x88 /Applications/ARM/bin/../lib/gcc/arm-none-eabi/10.3.1/../../../../arm-none-eabi/lib/thumb/v7e-m/nofp/libc_nano.a(lib_a-stdio.o)
 .debug_frame   0x0000000000003b9c       0x2c /Applications/ARM/bin/../lib/gcc/arm-none-eabi/10.3.1/../../../../arm-none-eabi/lib/thumb/v7e-m/nofp/libc_nano.a(lib_a-writer.o)
 .debug_frame   0x0000000000003bc8       0x2c /Applications/ARM/bin/../lib/gcc/arm-none-eabi/10.3.1/../../../../arm-none-eabi/lib/thumb/v7e-m/nofp/libc_nano.a(lib_a-closer.o)
 .debug_frame   0x0000000000003bf4       0x2c /Applications/ARM/bin/../lib/gcc/arm-none-eabi/10.3.1/../../../../arm-none-eabi/lib/thumb/v7e-m/nofp/libc_nano.a(lib_a-fstatr.o)
 .debug_frame   0x0000000000003c20       0x2c /Applications/ARM/bin/../lib/gcc/arm-none-eabi/10.3.1/../../../../arm-none-eabi/lib/thumb/v7e-m/nofp/libc_nano.a(lib_a-isattyr.o)
 .debug_frame   0x0000000000003c4c       0x2c /Applications/ARM/bin/../lib/gcc/arm-none-eabi/10.3.1/../../../../arm-none-eabi/lib/thumb/v7e-m/nofp/libc_nano.a(lib_a-lseekr.o)
 .debug_frame   0x0000000000003c78       0x2c /Applications/ARM/bin/../lib/gcc/arm-none-eabi/10.3.1/../../../../arm-none-eabi/lib/thumb/v7e-m/nofp/libc_nano.a(lib_a-readr.o)
 .debug_frame   0x0000000000003ca4       0x20 /Applications/ARM/bin/../lib/gcc/arm-none-eabi/10.3.1/../../../../arm-none-eabi/lib/thumb/v7e-m/nofp/libnosys.a(close.o)
 .debug_frame   0x0000000000003cc4       0x20 /Applications/ARM/bin/../lib/gcc/arm-none-eabi/10.3.1/../../../../arm-none-eabi/lib/thumb/v7e-m/nofp/libnosys.a(fstat.o)
 .debug_frame   0x0000000000003ce4       0x20 /Applications/ARM/bin/../lib/gcc/arm-none-eabi/10.3.1/../../../../arm-none-eabi/lib/thumb/v7e-m/nofp/libnosys.a(getpid.o)
 .debug_frame   0x0000000000003d04       0x20 /Applications/ARM/bin/../lib/gcc/arm-none-eabi/10.3.1/../../../../arm-none-eabi/lib/thumb/v7e-m/nofp/libnosys.a(isatty.o)
 .debug_frame   0x0000000000003d24       0x20 /Applications/ARM/bin/../lib/gcc/arm-none-eabi/10.3.1/../../../../arm-none-eabi/lib/thumb/v7e-m/nofp/libnosys.a(kill.o)
 .debug_frame   0x0000000000003d44       0x20 /Applications/ARM/bin/../lib/gcc/arm-none-eabi/10.3.1/../../../../arm-none-eabi/lib/thumb/v7e-m/nofp/libnosys.a(lseek.o)
 .debug_frame   0x0000000000003d64       0x20 /Applications/ARM/bin/../lib/gcc/arm-none-eabi/10.3.1/../../../../arm-none-eabi/lib/thumb/v7e-m/nofp/libnosys.a(read.o)
 .debug_frame   0x0000000000003d84       0x20 /Applications/ARM/bin/../lib/gcc/arm-none-eabi/10.3.1/../../../../arm-none-eabi/lib/thumb/v7e-m/nofp/libnosys.a(write.o)
 .debug_frame   0x0000000000003da4       0x20 /Applications/ARM/bin/../lib/gcc/arm-none-eabi/10.3.1/../../../../arm-none-eabi/lib/thumb/v7e-m/nofp/libnosys.a(_exit.o)

.stab           0x0000000000000000       0xcc
 .stab          0x0000000000000000       0x24 /Applications/ARM/bin/../lib/gcc/arm-none-eabi/10.3.1/../../../../arm-none-eabi/lib/thumb/v7e-m/nofp/libnosys.a(close.o)
 .stab          0x0000000000000024       0x18 /Applications/ARM/bin/../lib/gcc/arm-none-eabi/10.3.1/../../../../arm-none-eabi/lib/thumb/v7e-m/nofp/libnosys.a(fstat.o)
                                         0x24 (size before relaxing)
 .stab          0x000000000000003c       0x18 /Applications/ARM/bin/../lib/gcc/arm-none-eabi/10.3.1/../../../../arm-none-eabi/lib/thumb/v7e-m/nofp/libnosys.a(getpid.o)
                                         0x24 (size before relaxing)
 .stab          0x0000000000000054       0x18 /Applications/ARM/bin/../lib/gcc/arm-none-eabi/10.3.1/../../../../arm-none-eabi/lib/thumb/v7e-m/nofp/libnosys.a(isatty.o)
                                         0x24 (size before relaxing)
 .stab          0x000000000000006c       0x18 /Applications/ARM/bin/../lib/gcc/arm-none-eabi/10.3.1/../../../../arm-none-eabi/lib/thumb/v7e-m/nofp/libnosys.a(kill.o)
                                         0x24 (size before relaxing)
 .stab          0x0000000000000084       0x18 /Applications/ARM/bin/../lib/gcc/arm-none-eabi/10.3.1/../../../../arm-none-eabi/lib/thumb/v7e-m/nofp/libnosys.a(lseek.o)
                                         0x24 (size before relaxing)
 .stab          0x000000000000009c       0x18 /Applications/ARM/bin/../lib/gcc/arm-none-eabi/10.3.1/../../../../arm-none-eabi/lib/thumb/v7e-m/nofp/libnosys.a(read.o)
                                         0x24 (size before relaxing)
 .stab          0x00000000000000b4       0x18 /Applications/ARM/bin/../lib/gcc/arm-none-eabi/10.3.1/../../../../arm-none-eabi/lib/thumb/v7e-m/nofp/libnosys.a(write.o)
                                         0x24 (size before relaxing)

.stabstr        0x0000000000000000      0x1b9
 .stabstr       0x0000000000000000      0x1b9 /Applications/ARM/bin/../lib/gcc/arm-none-eabi/10.3.1/../../../../arm-none-eabi/lib/thumb/v7e-m/nofp/libnosys.a(close.o)
