Archive member included to satisfy reference by file (symbol)

../../../simplelink/gcc/lib/os/Debug/libsimplelink.a(device.o)
                              obj/Unicast/Debug/network.o (sl_Start)
../../../simplelink/gcc/lib/os/Debug/libsimplelink.a(driver.o)
                              ../../../simplelink/gcc/lib/os/Debug/libsimplelink.a(device.o) (g_SlDeviceStatus)
../../../simplelink/gcc/lib/os/Debug/libsimplelink.a(netapp.o)
                              obj/Unicast/Debug/control.o (sl_NetAppMDNSRegisterService)
../../../simplelink/gcc/lib/os/Debug/libsimplelink.a(socket.o)
                              obj/Unicast/Debug/network.o (sl_Socket)
../../../simplelink/gcc/lib/os/Debug/libsimplelink.a(wlan.o)
                              obj/Unicast/Debug/smartconfig.o (sl_WlanPolicySet)
../../../simplelink/gcc/lib/os/Debug/libsimplelink.a(cc_pal.o)
                              ../../../simplelink/gcc/lib/os/Debug/libsimplelink.a(device.o) (spi_Open)
../../../oslib/gcc/free_rtos/Debug/free_rtos.a(osi_freertos.o)
                              obj/Unicast/Debug/control.o (osi_InterruptRegister)
../../../oslib/gcc/free_rtos/Debug/free_rtos.a(queue.o)
                              ../../../oslib/gcc/free_rtos/Debug/free_rtos.a(osi_freertos.o) (xQueueGenericCreate)
../../../oslib/gcc/free_rtos/Debug/free_rtos.a(tasks.o)
                              ../../../oslib/gcc/free_rtos/Debug/free_rtos.a(osi_freertos.o) (xTaskCreate)
../../../oslib/gcc/free_rtos/Debug/free_rtos.a(port.o)
                              ../../../oslib/gcc/free_rtos/Debug/free_rtos.a(tasks.o) (pxPortInitialiseStack)
../../../oslib/gcc/free_rtos/Debug/free_rtos.a(heap_3.o)
                              ../../../oslib/gcc/free_rtos/Debug/free_rtos.a(osi_freertos.o) (pvPortMalloc)
../../../oslib/gcc/free_rtos/Debug/free_rtos.a(list.o)
                              ../../../oslib/gcc/free_rtos/Debug/free_rtos.a(queue.o) (vListInitialise)
../../../driverlib/gcc/lib/Debug/libdriver.a(gpio.o)
                              obj/Unicast/Debug/main.o (GPIODirModeSet)
../../../driverlib/gcc/lib/Debug/libdriver.a(i2c.o)
                              obj/Unicast/Debug/i2c_if.o (I2CMasterInitExpClk)
../../../driverlib/gcc/lib/Debug/libdriver.a(interrupt.o)
                              obj/Unicast/Debug/main.o (IntMasterEnable)
../../../driverlib/gcc/lib/Debug/libdriver.a(i2s.o)
                              obj/Unicast/Debug/i2s_if.o (I2SEnable)
../../../driverlib/gcc/lib/Debug/libdriver.a(pin.o)
                              obj/Unicast/Debug/pinmux.o (PinTypeUART)
../../../driverlib/gcc/lib/Debug/libdriver.a(prcm.o)
                              obj/Unicast/Debug/pinmux.o (PRCMPeripheralClkEnable)
../../../driverlib/gcc/lib/Debug/libdriver.a(spi.o)
                              ../../../simplelink/gcc/lib/os/Debug/libsimplelink.a(cc_pal.o) (SPIEnable)
../../../driverlib/gcc/lib/Debug/libdriver.a(timer.o)
                              ../../../simplelink/gcc/lib/os/Debug/libsimplelink.a(cc_pal.o) (TimerEnable)
../../../driverlib/gcc/lib/Debug/libdriver.a(uart.o)
                              obj/Unicast/Debug/uart_if.o (UARTConfigSetExpClk)
../../../driverlib/gcc/lib/Debug/libdriver.a(udma.o)
                              obj/Unicast/Debug/udma_if.o (uDMAEnable)
../../../driverlib/gcc/lib/Debug/libdriver.a(utils.o)
                              obj/Unicast/Debug/audiocodec.o (UtilsDelay)
../../../driverlib/gcc/lib/Debug/libdriver.a(cpu.o)
                              ../../../driverlib/gcc/lib/Debug/libdriver.a(interrupt.o) (CPUcpsid)
../../../driverlib/gcc/lib/Debug/libdriver.a(flash.o)
                              ../../../driverlib/gcc/lib/Debug/libdriver.a(prcm.o) (FlashDisable)
/Applications/ARM/bin/../lib/gcc/arm-none-eabi/10.3.1/../../../../arm-none-eabi/lib/thumb/v7e-m/nofp/libc_nano.a(lib_a-malloc.o)
                              obj/Unicast/Debug/circ_buff.o (malloc)
/Applications/ARM/bin/../lib/gcc/arm-none-eabi/10.3.1/../../../../arm-none-eabi/lib/thumb/v7e-m/nofp/libc_nano.a(lib_a-memcpy-stub.o)
                              obj/Unicast/Debug/circ_buff.o (memcpy)
/Applications/ARM/bin/../lib/gcc/arm-none-eabi/10.3.1/../../../../arm-none-eabi/lib/thumb/v7e-m/nofp/libc_nano.a(lib_a-memmove.o)
                              obj/Unicast/Debug/uart_if.o (memmove)
/Applications/ARM/bin/../lib/gcc/arm-none-eabi/10.3.1/../../../../arm-none-eabi/lib/thumb/v7e-m/nofp/libc_nano.a(lib_a-memset.o)
                              obj/Unicast/Debug/circ_buff.o (memset)
/Applications/ARM/bin/../lib/gcc/arm-none-eabi/10.3.1/../../../../arm-none-eabi/lib/thumb/v7e-m/nofp/libc_nano.a(lib_a-nano-freer.o)
                              /Applications/ARM/bin/../lib/gcc/arm-none-eabi/10.3.1/../../../../arm-none-eabi/lib/thumb/v7e-m/nofp/libc_nano.a(lib_a-malloc.o) (_free_r)
/Applications/ARM/bin/../lib/gcc/arm-none-eabi/10.3.1/../../../../arm-none-eabi/lib/thumb/v7e-m/nofp/libc_nano.a(lib_a-nano-mallocr.o)
                              /Applications/ARM/bin/../lib/gcc/arm-none-eabi/10.3.1/../../../../arm-none-eabi/lib/thumb/v7e-m/nofp/libc_nano.a(lib_a-malloc.o) (_malloc_r)
/Applications/ARM/bin/../lib/gcc/arm-none-eabi/10.3.1/../../../../arm-none-eabi/lib/thumb/v7e-m/nofp/libc_nano.a(lib_a-realloc.o)
                              obj/Unicast/Debug/uart_if.o (realloc)
/Applications/ARM/bin/../lib/gcc/arm-none-eabi/10.3.1/../../../../arm-none-eabi/lib/thumb/v7e-m/nofp/libc_nano.a(lib_a-sbrkr.o)
                              /Applications/ARM/bin/../lib/gcc/arm-none-eabi/10.3.1/../../../../arm-none-eabi/lib/thumb/v7e-m/nofp/libc_nano.a(lib_a-nano-mallocr.o) (_sbrk_r)
/Applications/ARM/bin/../lib/gcc/arm-none-eabi/10.3.1/../../../../arm-none-eabi/lib/thumb/v7e-m/nofp/libc_nano.a(lib_a-strlen.o)
                              obj/Unicast/Debug/uart_if.o (strlen)
/Applications/ARM/bin/../lib/gcc/arm-none-eabi/10.3.1/../../../../arm-none-eabi/lib/thumb/v7e-m/nofp/libc_nano.a(lib_a-vsnprintf.o)
                              obj/Unicast/Debug/uart_if.o (vsnprintf)
/Applications/ARM/bin/../lib/gcc/arm-none-eabi/10.3.1/../../../../arm-none-eabi/lib/thumb/v7e-m/nofp/libc_nano.a(lib_a-impure.o)
                              /Applications/ARM/bin/../lib/gcc/arm-none-eabi/10.3.1/../../../../arm-none-eabi/lib/thumb/v7e-m/nofp/libc_nano.a(lib_a-malloc.o) (_impure_ptr)
/Applications/ARM/bin/../lib/gcc/arm-none-eabi/10.3.1/../../../../arm-none-eabi/lib/thumb/v7e-m/nofp/libc_nano.a(lib_a-mlock.o)
                              /Applications/ARM/bin/../lib/gcc/arm-none-eabi/10.3.1/../../../../arm-none-eabi/lib/thumb/v7e-m/nofp/libc_nano.a(lib_a-nano-freer.o) (__malloc_lock)
/Applications/ARM/bin/../lib/gcc/arm-none-eabi/10.3.1/../../../../arm-none-eabi/lib/thumb/v7e-m/nofp/libc_nano.a(lib_a-nano-reallocr.o)
                              /Applications/ARM/bin/../lib/gcc/arm-none-eabi/10.3.1/../../../../arm-none-eabi/lib/thumb/v7e-m/nofp/libc_nano.a(lib_a-realloc.o) (_realloc_r)
/Applications/ARM/bin/../lib/gcc/arm-none-eabi/10.3.1/../../../../arm-none-eabi/lib/thumb/v7e-m/nofp/libc_nano.a(lib_a-nano-svfprintf.o)
                              /Applications/ARM/bin/../lib/gcc/arm-none-eabi/10.3.1/../../../../arm-none-eabi/lib/thumb/v7e-m/nofp/libc_nano.a(lib_a-vsnprintf.o) (_svfprintf_r)
/Applications/ARM/bin/../lib/gcc/arm-none-eabi/10.3.1/../../../../arm-none-eabi/lib/thumb/v7e-m/nofp/libc_nano.a(lib_a-nano-vfprintf_i.o)
                              /Applications/ARM/bin/../lib/gcc/arm-none-eabi/10.3.1/../../../../arm-none-eabi/lib/thumb/v7e-m/nofp/libc_nano.a(lib_a-nano-svfprintf.o) (_printf_i)
/Applications/ARM/bin/../lib/gcc/arm-none-eabi/10.3.1/../../../../arm-none-eabi/lib/thumb/v7e-m/nofp/libc_nano.a(lib_a-reent.o)
                              /Applications/ARM/bin/../lib/gcc/arm-none-eabi/10.3.1/../../../../arm-none-eabi/lib/thumb/v7e-m/nofp/libc_nano.a(lib_a-sbrkr.o) (errno)
/Applications/ARM/bin/../lib/gcc/arm-none-eabi/10.3.1/../../../../arm-none-eabi/lib/thumb/v7e-m/nofp/libc_nano.a(lib_a-lock.o)
                              /Applications/ARM/bin/../lib/gcc/arm-none-eabi/10.3.1/../../../../arm-none-eabi/lib/thumb/v7e-m/nofp/libc_nano.a(lib_a-mlock.o) (__retarget_lock_acquire_recursive)
/Applications/ARM/bin/../lib/gcc/arm-none-eabi/10.3.1/../../../../arm-none-eabi/lib/thumb/v7e-m/nofp/libc_nano.a(lib_a-memchr.o)
                              /Applications/ARM/bin/../lib/gcc/arm-none-eabi/10.3.1/../../../../arm-none-eabi/lib/thumb/v7e-m/nofp/libc_nano.a(lib_a-nano-svfprintf.o) (memchr)
/Applications/ARM/bin/../lib/gcc/arm-none-eabi/10.3.1/../../../../arm-none-eabi/lib/thumb/v7e-m/nofp/libc_nano.a(lib_a-nano-msizer.o)
                              /Applications/ARM/bin/../lib/gcc/arm-none-eabi/10.3.1/../../../../arm-none-eabi/lib/thumb/v7e-m/nofp/libc_nano.a(lib_a-nano-reallocr.o) (_malloc_usable_size_r)
/Applications/ARM/bin/../lib/gcc/arm-none-eabi/10.3.1/thumb/v7e-m/nofp/libgcc.a(_aeabi_uldivmod.o)
                              ../../../driverlib/gcc/lib/Debug/libdriver.a(prcm.o) (__aeabi_uldivmod)
/Applications/ARM/bin/../lib/gcc/arm-none-eabi/10.3.1/thumb/v7e-m/nofp/libgcc.a(_udivmoddi4.o)
                              /Applications/ARM/bin/../lib/gcc/arm-none-eabi/10.3.1/thumb/v7e-m/nofp/libgcc.a(_aeabi_uldivmod.o) (__udivmoddi4)
/Applications/ARM/bin/../lib/gcc/arm-none-eabi/10.3.1/thumb/v7e-m/nofp/libgcc.a(_dvmd_tls.o)
                              /Applications/ARM/bin/../lib/gcc/arm-none-eabi/10.3.1/thumb/v7e-m/nofp/libgcc.a(_aeabi_uldivmod.o) (__aeabi_ldiv0)

Discarded input sections

 .text          0x0000000000000000        0x0 obj/Unicast/Debug/audiocodec.o
 .data          0x0000000000000000        0x0 obj/Unicast/Debug/audiocodec.o
 .bss           0x0000000000000000        0x0 obj/Unicast/Debug/audiocodec.o
 .text.AudioCodecSpeakerMute
                0x0000000000000000       0x34 obj/Unicast/Debug/audiocodec.o
 .text.AudioCodecSpeakerUnmute
                0x0000000000000000       0x34 obj/Unicast/Debug/audiocodec.o
 .text.AudioCodecMicMute
                0x0000000000000000       0x34 obj/Unicast/Debug/audiocodec.o
 .text.AudioCodecMicUnmute
                0x0000000000000000       0x34 obj/Unicast/Debug/audiocodec.o
 .text          0x0000000000000000        0x0 obj/Unicast/Debug/circ_buff.o
 .data          0x0000000000000000        0x0 obj/Unicast/Debug/circ_buff.o
 .bss           0x0000000000000000        0x0 obj/Unicast/Debug/circ_buff.o
 .text.DestroyCircularBuffer
                0x0000000000000000       0x28 obj/Unicast/Debug/circ_buff.o
 .text.ReadBuffer
                0x0000000000000000       0x6c obj/Unicast/Debug/circ_buff.o
 .text.FillZeroes
                0x0000000000000000       0x2a obj/Unicast/Debug/circ_buff.o
 .text.GetBufferEmptySize
                0x0000000000000000       0x20 obj/Unicast/Debug/circ_buff.o
 .text.IsBufferOverflow
                0x0000000000000000       0x2e obj/Unicast/Debug/circ_buff.o
 .text          0x0000000000000000        0x0 obj/Unicast/Debug/control.o
 .data          0x0000000000000000        0x0 obj/Unicast/Debug/control.o
 .bss           0x0000000000000000        0x0 obj/Unicast/Debug/control.o
 .text.ControlTaskDestroy
                0x0000000000000000       0x5c obj/Unicast/Debug/control.o
 .rodata.__FUNCTION__.0
                0x0000000000000000       0x13 obj/Unicast/Debug/control.o
 .text          0x0000000000000000        0x0 obj/Unicast/Debug/main.o
 .data          0x0000000000000000        0x0 obj/Unicast/Debug/main.o
 .bss           0x0000000000000000        0x0 obj/Unicast/Debug/main.o
 .text.vApplicationTickHook
                0x0000000000000000        0xc obj/Unicast/Debug/main.o
 .text.vAssertCalled
                0x0000000000000000        0xc obj/Unicast/Debug/main.o
 .text          0x0000000000000000        0x0 obj/Unicast/Debug/microphone.o
 .data          0x0000000000000000        0x0 obj/Unicast/Debug/microphone.o
 .bss           0x0000000000000000        0x0 obj/Unicast/Debug/microphone.o
 .bss.g_ulConnected
                0x0000000000000000        0x4 obj/Unicast/Debug/microphone.o
 .text          0x0000000000000000        0x0 obj/Unicast/Debug/network.o
 .data          0x0000000000000000        0x0 obj/Unicast/Debug/network.o
 .bss           0x0000000000000000        0x0 obj/Unicast/Debug/network.o
 .text          0x0000000000000000        0x0 obj/Unicast/Debug/pcm_handler.o
 .data          0x0000000000000000        0x0 obj/Unicast/Debug/pcm_handler.o
 .bss           0x0000000000000000        0x0 obj/Unicast/Debug/pcm_handler.o
 .text          0x0000000000000000        0x0 obj/Unicast/Debug/pinmux.o
 .data          0x0000000000000000        0x0 obj/Unicast/Debug/pinmux.o
 .bss           0x0000000000000000        0x0 obj/Unicast/Debug/pinmux.o
 .text          0x0000000000000000        0x0 obj/Unicast/Debug/smartconfig.o
 .data          0x0000000000000000        0x0 obj/Unicast/Debug/smartconfig.o
 .bss           0x0000000000000000        0x0 obj/Unicast/Debug/smartconfig.o
 .text.SmartConfigStop
                0x0000000000000000       0x3c obj/Unicast/Debug/smartconfig.o
 .rodata.__FUNCTION__.0
                0x0000000000000000       0x10 obj/Unicast/Debug/smartconfig.o
 .text          0x0000000000000000        0x0 obj/Unicast/Debug/speaker.o
 .data          0x0000000000000000        0x0 obj/Unicast/Debug/speaker.o
 .bss           0x0000000000000000        0x0 obj/Unicast/Debug/speaker.o
 .bss.iCount    0x0000000000000000        0x4 obj/Unicast/Debug/speaker.o
 .text          0x0000000000000000        0x0 obj/Unicast/Debug/uart_if.o
 .data          0x0000000000000000        0x0 obj/Unicast/Debug/uart_if.o
 .bss           0x0000000000000000        0x0 obj/Unicast/Debug/uart_if.o
 .data.ilen     0x0000000000000000        0x4 obj/Unicast/Debug/uart_if.o
 .text.ClearTerm
                0x0000000000000000       0x14 obj/Unicast/Debug/uart_if.o
 .text.Error    0x0000000000000000       0x58 obj/Unicast/Debug/uart_if.o
 .text.GetCmd   0x0000000000000000       0xc4 obj/Unicast/Debug/uart_if.o
 .text.TrimSpace
                0x0000000000000000       0x8e obj/Unicast/Debug/uart_if.o
 .text          0x0000000000000000        0x0 obj/Unicast/Debug/i2c_if.o
 .data          0x0000000000000000        0x0 obj/Unicast/Debug/i2c_if.o
 .bss           0x0000000000000000        0x0 obj/Unicast/Debug/i2c_if.o
 .text.I2C_IF_Close
                0x0000000000000000       0x12 obj/Unicast/Debug/i2c_if.o
 .text          0x0000000000000000        0x0 obj/Unicast/Debug/i2s_if.o
 .data          0x0000000000000000        0x0 obj/Unicast/Debug/i2s_if.o
 .bss           0x0000000000000000        0x0 obj/Unicast/Debug/i2s_if.o
 .text.AudioRendererGetDMADataPtr
                0x0000000000000000       0x14 obj/Unicast/Debug/i2s_if.o
 .text.AudioCapturerGetDMADataPtr
                0x0000000000000000       0x14 obj/Unicast/Debug/i2s_if.o
 .text          0x0000000000000000        0x0 obj/Unicast/Debug/udma_if.o
 .data          0x0000000000000000        0x0 obj/Unicast/Debug/udma_if.o
 .bss           0x0000000000000000        0x0 obj/Unicast/Debug/udma_if.o
 .text.UDMASetupAutoMemTransfer
                0x0000000000000000       0x38 obj/Unicast/Debug/udma_if.o
 .text.UDMASetupPingPongTransfer
                0x0000000000000000       0x5e obj/Unicast/Debug/udma_if.o
 .text.UDMAStartTransfer
                0x0000000000000000       0x16 obj/Unicast/Debug/udma_if.o
 .text.UDMAStopTransfer
                0x0000000000000000       0x16 obj/Unicast/Debug/udma_if.o
 .text.UDMADeInit
                0x0000000000000000       0x18 obj/Unicast/Debug/udma_if.o
 .text          0x0000000000000000        0x0 obj/Unicast/Debug/gpio_if.o
 .data          0x0000000000000000        0x0 obj/Unicast/Debug/gpio_if.o
 .bss           0x0000000000000000        0x0 obj/Unicast/Debug/gpio_if.o
 .text.GetPeripheralIntNum
                0x0000000000000000       0x64 obj/Unicast/Debug/gpio_if.o
 .text.GPIO_IF_LedStatus
                0x0000000000000000       0x88 obj/Unicast/Debug/gpio_if.o
 .text.GPIO_IF_LedToggle
                0x0000000000000000       0x36 obj/Unicast/Debug/gpio_if.o
 .text.GPIO_IF_ConfigureNIntEnable
                0x0000000000000000       0x4a obj/Unicast/Debug/gpio_if.o
 .text.GPIO_IF_Get
                0x0000000000000000       0x34 obj/Unicast/Debug/gpio_if.o
 .text          0x0000000000000000        0x0 obj/Unicast/Debug/startup_gcc.o
 .data          0x0000000000000000        0x0 obj/Unicast/Debug/startup_gcc.o
 .bss           0x0000000000000000        0x0 obj/Unicast/Debug/startup_gcc.o
 .text          0x0000000000000000        0x0 ../../../simplelink/gcc/lib/os/Debug/libsimplelink.a(device.o)
 .data          0x0000000000000000        0x0 ../../../simplelink/gcc/lib/os/Debug/libsimplelink.a(device.o)
 .bss           0x0000000000000000        0x0 ../../../simplelink/gcc/lib/os/Debug/libsimplelink.a(device.o)
 .text.sl_Stop_WithNwpLpdsPoll
                0x0000000000000000       0xec ../../../simplelink/gcc/lib/os/Debug/libsimplelink.a(device.o)
 .rodata._SlEventMaskSetCmdCtrl
                0x0000000000000000        0x4 ../../../simplelink/gcc/lib/os/Debug/libsimplelink.a(device.o)
 .text.sl_EventMaskSet
                0x0000000000000000       0x70 ../../../simplelink/gcc/lib/os/Debug/libsimplelink.a(device.o)
 .rodata._SlEventMaskGetCmdCtrl
                0x0000000000000000        0x4 ../../../simplelink/gcc/lib/os/Debug/libsimplelink.a(device.o)
 .text.sl_EventMaskGet
                0x0000000000000000       0x70 ../../../simplelink/gcc/lib/os/Debug/libsimplelink.a(device.o)
 .rodata._SlDeviceGetCmdCtrl
                0x0000000000000000        0x4 ../../../simplelink/gcc/lib/os/Debug/libsimplelink.a(device.o)
 .text.sl_DevGet
                0x0000000000000000       0xe0 ../../../simplelink/gcc/lib/os/Debug/libsimplelink.a(device.o)
 .rodata._SlDeviceSetCmdCtrl
                0x0000000000000000        0x4 ../../../simplelink/gcc/lib/os/Debug/libsimplelink.a(device.o)
 .text.sl_DevSet
                0x0000000000000000       0xa0 ../../../simplelink/gcc/lib/os/Debug/libsimplelink.a(device.o)
 .text          0x0000000000000000        0x0 ../../../simplelink/gcc/lib/os/Debug/libsimplelink.a(driver.o)
 .data          0x0000000000000000        0x0 ../../../simplelink/gcc/lib/os/Debug/libsimplelink.a(driver.o)
 .bss           0x0000000000000000        0x0 ../../../simplelink/gcc/lib/os/Debug/libsimplelink.a(driver.o)
 .rodata.netApp_callbacks
                0x0000000000000000        0x4 ../../../simplelink/gcc/lib/os/Debug/libsimplelink.a(driver.o)
 .rodata.httpServer_callbacks
                0x0000000000000000        0x4 ../../../simplelink/gcc/lib/os/Debug/libsimplelink.a(driver.o)
 .text._SlDrvBasicCmd
                0x0000000000000000       0x50 ../../../simplelink/gcc/lib/os/Debug/libsimplelink.a(driver.o)
 .text          0x0000000000000000        0x0 ../../../simplelink/gcc/lib/os/Debug/libsimplelink.a(netapp.o)
 .data          0x0000000000000000        0x0 ../../../simplelink/gcc/lib/os/Debug/libsimplelink.a(netapp.o)
 .bss           0x0000000000000000        0x0 ../../../simplelink/gcc/lib/os/Debug/libsimplelink.a(netapp.o)
 .rodata._SlNetAppStartCtrl
                0x0000000000000000        0x4 ../../../simplelink/gcc/lib/os/Debug/libsimplelink.a(netapp.o)
 .text.sl_NetAppStart
                0x0000000000000000       0x68 ../../../simplelink/gcc/lib/os/Debug/libsimplelink.a(netapp.o)
 .rodata._SlNetAppStopCtrl
                0x0000000000000000        0x4 ../../../simplelink/gcc/lib/os/Debug/libsimplelink.a(netapp.o)
 .text.sl_NetAppStop
                0x0000000000000000       0x68 ../../../simplelink/gcc/lib/os/Debug/libsimplelink.a(netapp.o)
 .rodata._SlGetServiceListeCtrl
                0x0000000000000000        0x4 ../../../simplelink/gcc/lib/os/Debug/libsimplelink.a(netapp.o)
 .text.sl_NetAppGetServiceList
                0x0000000000000000       0xf0 ../../../simplelink/gcc/lib/os/Debug/libsimplelink.a(netapp.o)
 .text._sl_HandleAsync_DnsGetHostByAddr
                0x0000000000000000       0x14 ../../../simplelink/gcc/lib/os/Debug/libsimplelink.a(netapp.o)
 .rodata._SlGetHostByNameCtrl
                0x0000000000000000        0x4 ../../../simplelink/gcc/lib/os/Debug/libsimplelink.a(netapp.o)
 .text.sl_NetAppDnsGetHostByName
                0x0000000000000000      0x174 ../../../simplelink/gcc/lib/os/Debug/libsimplelink.a(netapp.o)
 .rodata        0x0000000000000000        0x4 ../../../simplelink/gcc/lib/os/Debug/libsimplelink.a(netapp.o)
 .text.sl_NetAppPingStart
                0x0000000000000000      0x1e8 ../../../simplelink/gcc/lib/os/Debug/libsimplelink.a(netapp.o)
 .rodata._SlNetAppSetCmdCtrl
                0x0000000000000000        0x4 ../../../simplelink/gcc/lib/os/Debug/libsimplelink.a(netapp.o)
 .text.sl_NetAppSet
                0x0000000000000000       0xa0 ../../../simplelink/gcc/lib/os/Debug/libsimplelink.a(netapp.o)
 .rodata._SlNetAppGetCmdCtrl
                0x0000000000000000        0x4 ../../../simplelink/gcc/lib/os/Debug/libsimplelink.a(netapp.o)
 .text.sl_NetAppGet
                0x0000000000000000       0xc8 ../../../simplelink/gcc/lib/os/Debug/libsimplelink.a(netapp.o)
 .text          0x0000000000000000        0x0 ../../../simplelink/gcc/lib/os/Debug/libsimplelink.a(socket.o)
 .data          0x0000000000000000        0x0 ../../../simplelink/gcc/lib/os/Debug/libsimplelink.a(socket.o)
 .bss           0x0000000000000000        0x0 ../../../simplelink/gcc/lib/os/Debug/libsimplelink.a(socket.o)
 .text._sl_ParseAddress
                0x0000000000000000       0x64 ../../../simplelink/gcc/lib/os/Debug/libsimplelink.a(socket.o)
 .rodata._SlSockCloseCmdCtrl
                0x0000000000000000        0x4 ../../../simplelink/gcc/lib/os/Debug/libsimplelink.a(socket.o)
 .text.sl_Close
                0x0000000000000000       0x6c ../../../simplelink/gcc/lib/os/Debug/libsimplelink.a(socket.o)
 .text.sl_Connect
                0x0000000000000000      0x198 ../../../simplelink/gcc/lib/os/Debug/libsimplelink.a(socket.o)
 .rodata._SlSendCmdCtrl
                0x0000000000000000        0x4 ../../../simplelink/gcc/lib/os/Debug/libsimplelink.a(socket.o)
 .text.sl_Send  0x0000000000000000      0x134 ../../../simplelink/gcc/lib/os/Debug/libsimplelink.a(socket.o)
 .rodata._SlListenCmdCtrl
                0x0000000000000000        0x4 ../../../simplelink/gcc/lib/os/Debug/libsimplelink.a(socket.o)
 .text.sl_Listen
                0x0000000000000000       0x78 ../../../simplelink/gcc/lib/os/Debug/libsimplelink.a(socket.o)
 .rodata._SlAcceptCmdCtrl
                0x0000000000000000        0x4 ../../../simplelink/gcc/lib/os/Debug/libsimplelink.a(socket.o)
 .text.sl_Accept
                0x0000000000000000      0x1cc ../../../simplelink/gcc/lib/os/Debug/libsimplelink.a(socket.o)
 .rodata._SlRecvCmdCtrl
                0x0000000000000000        0x4 ../../../simplelink/gcc/lib/os/Debug/libsimplelink.a(socket.o)
 .text.sl_Recv  0x0000000000000000       0xa8 ../../../simplelink/gcc/lib/os/Debug/libsimplelink.a(socket.o)
 .rodata._SlSetSockOptCmdCtrl
                0x0000000000000000        0x4 ../../../simplelink/gcc/lib/os/Debug/libsimplelink.a(socket.o)
 .text.sl_SetSockOpt
                0x0000000000000000       0xa4 ../../../simplelink/gcc/lib/os/Debug/libsimplelink.a(socket.o)
 .rodata._SlGetSockOptCmdCtrl
                0x0000000000000000        0x4 ../../../simplelink/gcc/lib/os/Debug/libsimplelink.a(socket.o)
 .text.sl_GetSockOpt
                0x0000000000000000       0xe0 ../../../simplelink/gcc/lib/os/Debug/libsimplelink.a(socket.o)
 .text.SL_FD_CLR
                0x0000000000000000       0x2e ../../../simplelink/gcc/lib/os/Debug/libsimplelink.a(socket.o)
 .text          0x0000000000000000        0x0 ../../../simplelink/gcc/lib/os/Debug/libsimplelink.a(wlan.o)
 .data          0x0000000000000000        0x0 ../../../simplelink/gcc/lib/os/Debug/libsimplelink.a(wlan.o)
 .bss           0x0000000000000000        0x0 ../../../simplelink/gcc/lib/os/Debug/libsimplelink.a(wlan.o)
 .text.sl_WlanConnect
                0x0000000000000000      0x2c4 ../../../simplelink/gcc/lib/os/Debug/libsimplelink.a(wlan.o)
 .text.sl_WlanDisconnect
                0x0000000000000000       0x3c ../../../simplelink/gcc/lib/os/Debug/libsimplelink.a(wlan.o)
 .rodata._SlPolicyGetCmdCtrl
                0x0000000000000000        0x4 ../../../simplelink/gcc/lib/os/Debug/libsimplelink.a(wlan.o)
 .text.sl_WlanPolicyGet
                0x0000000000000000      0x110 ../../../simplelink/gcc/lib/os/Debug/libsimplelink.a(wlan.o)
 .text.sl_WlanProfileAdd
                0x0000000000000000      0x304 ../../../simplelink/gcc/lib/os/Debug/libsimplelink.a(wlan.o)
 .rodata._SlProfileGetCmdCtrl
                0x0000000000000000        0x4 ../../../simplelink/gcc/lib/os/Debug/libsimplelink.a(wlan.o)
 .text.sl_WlanProfileGet
                0x0000000000000000      0x154 ../../../simplelink/gcc/lib/os/Debug/libsimplelink.a(wlan.o)
 .rodata._SlWlanGetNetworkListCtrl
                0x0000000000000000        0x4 ../../../simplelink/gcc/lib/os/Debug/libsimplelink.a(wlan.o)
 .text.sl_WlanGetNetworkList
                0x0000000000000000       0xb0 ../../../simplelink/gcc/lib/os/Debug/libsimplelink.a(wlan.o)
 .rodata._SlRxFilterAddtCmdCtrl
                0x0000000000000000        0x4 ../../../simplelink/gcc/lib/os/Debug/libsimplelink.a(wlan.o)
 .text.sl_WlanRxFilterAdd
                0x0000000000000000       0xac ../../../simplelink/gcc/lib/os/Debug/libsimplelink.a(wlan.o)
 .rodata._SlRxFilterSetCmdCtrl
                0x0000000000000000        0x4 ../../../simplelink/gcc/lib/os/Debug/libsimplelink.a(wlan.o)
 .text.sl_WlanRxFilterSet
                0x0000000000000000       0x88 ../../../simplelink/gcc/lib/os/Debug/libsimplelink.a(wlan.o)
 .rodata._SlRxFilterGetCmdCtrl
                0x0000000000000000        0x4 ../../../simplelink/gcc/lib/os/Debug/libsimplelink.a(wlan.o)
 .text.sl_WlanRxFilterGet
                0x0000000000000000       0xa8 ../../../simplelink/gcc/lib/os/Debug/libsimplelink.a(wlan.o)
 .text.sl_WlanRxStatStart
                0x0000000000000000       0x3c ../../../simplelink/gcc/lib/os/Debug/libsimplelink.a(wlan.o)
 .text.sl_WlanRxStatStop
                0x0000000000000000       0x3c ../../../simplelink/gcc/lib/os/Debug/libsimplelink.a(wlan.o)
 .rodata        0x0000000000000000        0x4 ../../../simplelink/gcc/lib/os/Debug/libsimplelink.a(wlan.o)
 .text.sl_WlanRxStatGet
                0x0000000000000000       0x70 ../../../simplelink/gcc/lib/os/Debug/libsimplelink.a(wlan.o)
 .text.sl_WlanSmartConfigStop
                0x0000000000000000       0x3c ../../../simplelink/gcc/lib/os/Debug/libsimplelink.a(wlan.o)
 .rodata._SlWlanCfgSetCmdCtrl
                0x0000000000000000        0x4 ../../../simplelink/gcc/lib/os/Debug/libsimplelink.a(wlan.o)
 .text.sl_WlanSet
                0x0000000000000000       0x98 ../../../simplelink/gcc/lib/os/Debug/libsimplelink.a(wlan.o)
 .rodata._SlWlanCfgGetCmdCtrl
                0x0000000000000000        0x4 ../../../simplelink/gcc/lib/os/Debug/libsimplelink.a(wlan.o)
 .text.sl_WlanGet
                0x0000000000000000       0xe4 ../../../simplelink/gcc/lib/os/Debug/libsimplelink.a(wlan.o)
 .text          0x0000000000000000        0x0 ../../../simplelink/gcc/lib/os/Debug/libsimplelink.a(cc_pal.o)
 .data          0x0000000000000000        0x0 ../../../simplelink/gcc/lib/os/Debug/libsimplelink.a(cc_pal.o)
 .bss           0x0000000000000000        0x0 ../../../simplelink/gcc/lib/os/Debug/libsimplelink.a(cc_pal.o)
 .bss.g_pHostIntHdl
                0x0000000000000000        0x4 ../../../simplelink/gcc/lib/os/Debug/libsimplelink.a(cc_pal.o)
 .text.NwpPowerOff_WithNwpLpdsPoll
                0x0000000000000000       0x80 ../../../simplelink/gcc/lib/os/Debug/libsimplelink.a(cc_pal.o)
 .text          0x0000000000000000        0x0 ../../../oslib/gcc/free_rtos/Debug/free_rtos.a(osi_freertos.o)
 .data          0x0000000000000000        0x0 ../../../oslib/gcc/free_rtos/Debug/free_rtos.a(osi_freertos.o)
 .bss           0x0000000000000000        0x0 ../../../oslib/gcc/free_rtos/Debug/free_rtos.a(osi_freertos.o)
 .text.osi_SyncObjClear
                0x0000000000000000       0x32 ../../../oslib/gcc/free_rtos/Debug/free_rtos.a(osi_freertos.o)
 .text.osi_TaskDelete
                0x0000000000000000       0x1a ../../../oslib/gcc/free_rtos/Debug/free_rtos.a(osi_freertos.o)
 .text.VDeleteSimpleLinkSpawnTask
                0x0000000000000000       0x40 ../../../oslib/gcc/free_rtos/Debug/free_rtos.a(osi_freertos.o)
 .text.mem_Malloc
                0x0000000000000000       0x18 ../../../oslib/gcc/free_rtos/Debug/free_rtos.a(osi_freertos.o)
 .text.mem_Free
                0x0000000000000000       0x16 ../../../oslib/gcc/free_rtos/Debug/free_rtos.a(osi_freertos.o)
 .text.mem_set  0x0000000000000000       0x1e ../../../oslib/gcc/free_rtos/Debug/free_rtos.a(osi_freertos.o)
 .text.mem_copy
                0x0000000000000000       0x1e ../../../oslib/gcc/free_rtos/Debug/free_rtos.a(osi_freertos.o)
 .text.osi_EnterCritical
                0x0000000000000000        0xe ../../../oslib/gcc/free_rtos/Debug/free_rtos.a(osi_freertos.o)
 .text.osi_ExitCritical
                0x0000000000000000       0x14 ../../../oslib/gcc/free_rtos/Debug/free_rtos.a(osi_freertos.o)
 .text.osi_TaskDisable
                0x0000000000000000        0xe ../../../oslib/gcc/free_rtos/Debug/free_rtos.a(osi_freertos.o)
 .text.osi_TaskEnable
                0x0000000000000000       0x14 ../../../oslib/gcc/free_rtos/Debug/free_rtos.a(osi_freertos.o)
 .text.osi_ContextSave
                0x0000000000000000        0xc ../../../oslib/gcc/free_rtos/Debug/free_rtos.a(osi_freertos.o)
 .text.osi_ContextRestore
                0x0000000000000000        0xc ../../../oslib/gcc/free_rtos/Debug/free_rtos.a(osi_freertos.o)
 .text          0x0000000000000000        0x0 ../../../oslib/gcc/free_rtos/Debug/free_rtos.a(queue.o)
 .data          0x0000000000000000        0x0 ../../../oslib/gcc/free_rtos/Debug/free_rtos.a(queue.o)
 .bss           0x0000000000000000        0x0 ../../../oslib/gcc/free_rtos/Debug/free_rtos.a(queue.o)
 .text.xQueueCreateCountingSemaphore
                0x0000000000000000       0x2c ../../../oslib/gcc/free_rtos/Debug/free_rtos.a(queue.o)
 .text.xQueuePeek
                0x0000000000000000      0x148 ../../../oslib/gcc/free_rtos/Debug/free_rtos.a(queue.o)
 .text.xQueueReceiveFromISR
                0x0000000000000000       0xae ../../../oslib/gcc/free_rtos/Debug/free_rtos.a(queue.o)
 .text.xQueuePeekFromISR
                0x0000000000000000       0x66 ../../../oslib/gcc/free_rtos/Debug/free_rtos.a(queue.o)
 .text.uxQueueMessagesWaiting
                0x0000000000000000       0x20 ../../../oslib/gcc/free_rtos/Debug/free_rtos.a(queue.o)
 .text.uxQueueSpacesAvailable
                0x0000000000000000       0x2a ../../../oslib/gcc/free_rtos/Debug/free_rtos.a(queue.o)
 .text.uxQueueMessagesWaitingFromISR
                0x0000000000000000       0x1a ../../../oslib/gcc/free_rtos/Debug/free_rtos.a(queue.o)
 .text.uxQueueGetQueueNumber
                0x0000000000000000       0x16 ../../../oslib/gcc/free_rtos/Debug/free_rtos.a(queue.o)
 .text.vQueueSetQueueNumber
                0x0000000000000000       0x1a ../../../oslib/gcc/free_rtos/Debug/free_rtos.a(queue.o)
 .text.ucQueueGetQueueType
                0x0000000000000000       0x18 ../../../oslib/gcc/free_rtos/Debug/free_rtos.a(queue.o)
 .text.xQueueIsQueueEmptyFromISR
                0x0000000000000000       0x26 ../../../oslib/gcc/free_rtos/Debug/free_rtos.a(queue.o)
 .text.xQueueIsQueueFullFromISR
                0x0000000000000000       0x2a ../../../oslib/gcc/free_rtos/Debug/free_rtos.a(queue.o)
 .text.vQueueAddToRegistry
                0x0000000000000000       0x50 ../../../oslib/gcc/free_rtos/Debug/free_rtos.a(queue.o)
 .text.pcQueueGetName
                0x0000000000000000       0x4c ../../../oslib/gcc/free_rtos/Debug/free_rtos.a(queue.o)
 .text.xQueueCreateSet
                0x0000000000000000       0x1e ../../../oslib/gcc/free_rtos/Debug/free_rtos.a(queue.o)
 .text.xQueueAddToSet
                0x0000000000000000       0x42 ../../../oslib/gcc/free_rtos/Debug/free_rtos.a(queue.o)
 .text.xQueueRemoveFromSet
                0x0000000000000000       0x48 ../../../oslib/gcc/free_rtos/Debug/free_rtos.a(queue.o)
 .text.xQueueSelectFromSet
                0x0000000000000000       0x26 ../../../oslib/gcc/free_rtos/Debug/free_rtos.a(queue.o)
 .text.xQueueSelectFromSetFromISR
                0x0000000000000000       0x24 ../../../oslib/gcc/free_rtos/Debug/free_rtos.a(queue.o)
 .text          0x0000000000000000        0x0 ../../../oslib/gcc/free_rtos/Debug/free_rtos.a(tasks.o)
 .data          0x0000000000000000        0x0 ../../../oslib/gcc/free_rtos/Debug/free_rtos.a(tasks.o)
 .bss           0x0000000000000000        0x0 ../../../oslib/gcc/free_rtos/Debug/free_rtos.a(tasks.o)
 .text.vTaskDelete
                0x0000000000000000       0xfc ../../../oslib/gcc/free_rtos/Debug/free_rtos.a(tasks.o)
 .text.vTaskDelayUntil
                0x0000000000000000       0xa0 ../../../oslib/gcc/free_rtos/Debug/free_rtos.a(tasks.o)
 .text.eTaskGetState
                0x0000000000000000       0x98 ../../../oslib/gcc/free_rtos/Debug/free_rtos.a(tasks.o)
 .text.uxTaskPriorityGet
                0x0000000000000000       0x34 ../../../oslib/gcc/free_rtos/Debug/free_rtos.a(tasks.o)
 .text.uxTaskPriorityGetFromISR
                0x0000000000000000       0x58 ../../../oslib/gcc/free_rtos/Debug/free_rtos.a(tasks.o)
 .text.vTaskPrioritySet
                0x0000000000000000      0x140 ../../../oslib/gcc/free_rtos/Debug/free_rtos.a(tasks.o)
 .text.vTaskSuspend
                0x0000000000000000      0x104 ../../../oslib/gcc/free_rtos/Debug/free_rtos.a(tasks.o)
 .text.prvTaskIsTaskSuspended
                0x0000000000000000       0x58 ../../../oslib/gcc/free_rtos/Debug/free_rtos.a(tasks.o)
 .text.vTaskResume
                0x0000000000000000       0xa0 ../../../oslib/gcc/free_rtos/Debug/free_rtos.a(tasks.o)
 .text.xTaskResumeFromISR
                0x0000000000000000       0xc4 ../../../oslib/gcc/free_rtos/Debug/free_rtos.a(tasks.o)
 .text.vTaskEndScheduler
                0x0000000000000000       0x30 ../../../oslib/gcc/free_rtos/Debug/free_rtos.a(tasks.o)
 .text.xTaskGetTickCount
                0x0000000000000000       0x1c ../../../oslib/gcc/free_rtos/Debug/free_rtos.a(tasks.o)
 .text.xTaskGetTickCountFromISR
                0x0000000000000000       0x20 ../../../oslib/gcc/free_rtos/Debug/free_rtos.a(tasks.o)
 .text.uxTaskGetNumberOfTasks
                0x0000000000000000       0x14 ../../../oslib/gcc/free_rtos/Debug/free_rtos.a(tasks.o)
 .text.pcTaskGetName
                0x0000000000000000       0x2c ../../../oslib/gcc/free_rtos/Debug/free_rtos.a(tasks.o)
 .text.uxTaskGetSystemState
                0x0000000000000000      0x11c ../../../oslib/gcc/free_rtos/Debug/free_rtos.a(tasks.o)
 .text.xTaskGetIdleTaskHandle
                0x0000000000000000       0x14 ../../../oslib/gcc/free_rtos/Debug/free_rtos.a(tasks.o)
 .text.vTaskPlaceOnUnorderedEventList
                0x0000000000000000       0x3c ../../../oslib/gcc/free_rtos/Debug/free_rtos.a(tasks.o)
 .text.vTaskRemoveFromUnorderedEventList
                0x0000000000000000       0x84 ../../../oslib/gcc/free_rtos/Debug/free_rtos.a(tasks.o)
 .text.vTaskSetTimeOutState
                0x0000000000000000       0x30 ../../../oslib/gcc/free_rtos/Debug/free_rtos.a(tasks.o)
 .text.uxTaskGetTaskNumber
                0x0000000000000000       0x2a ../../../oslib/gcc/free_rtos/Debug/free_rtos.a(tasks.o)
 .text.vTaskSetTaskNumber
                0x0000000000000000       0x24 ../../../oslib/gcc/free_rtos/Debug/free_rtos.a(tasks.o)
 .text.vTaskGetInfo
                0x0000000000000000       0xcc ../../../oslib/gcc/free_rtos/Debug/free_rtos.a(tasks.o)
 .text.prvListTasksWithinSingleList
                0x0000000000000000       0xa4 ../../../oslib/gcc/free_rtos/Debug/free_rtos.a(tasks.o)
 .text.prvTaskCheckFreeStackSpace
                0x0000000000000000       0x36 ../../../oslib/gcc/free_rtos/Debug/free_rtos.a(tasks.o)
 .text.xTaskGetCurrentTaskHandle
                0x0000000000000000       0x1c ../../../oslib/gcc/free_rtos/Debug/free_rtos.a(tasks.o)
 .text.xTaskGetSchedulerState
                0x0000000000000000       0x3c ../../../oslib/gcc/free_rtos/Debug/free_rtos.a(tasks.o)
 .text.uxTaskResetEventItemValue
                0x0000000000000000       0x30 ../../../oslib/gcc/free_rtos/Debug/free_rtos.a(tasks.o)
 .text.ulTaskNotifyTake
                0x0000000000000000       0x90 ../../../oslib/gcc/free_rtos/Debug/free_rtos.a(tasks.o)
 .text.xTaskNotifyWait
                0x0000000000000000       0xb4 ../../../oslib/gcc/free_rtos/Debug/free_rtos.a(tasks.o)
 .text.xTaskGenericNotify
                0x0000000000000000      0x10c ../../../oslib/gcc/free_rtos/Debug/free_rtos.a(tasks.o)
 .text.xTaskGenericNotifyFromISR
                0x0000000000000000      0x154 ../../../oslib/gcc/free_rtos/Debug/free_rtos.a(tasks.o)
 .text.vTaskNotifyGiveFromISR
                0x0000000000000000       0xe8 ../../../oslib/gcc/free_rtos/Debug/free_rtos.a(tasks.o)
 .text.xTaskNotifyStateClear
                0x0000000000000000       0x4c ../../../oslib/gcc/free_rtos/Debug/free_rtos.a(tasks.o)
 .text          0x0000000000000000        0x0 ../../../oslib/gcc/free_rtos/Debug/free_rtos.a(port.o)
 .data          0x0000000000000000        0x0 ../../../oslib/gcc/free_rtos/Debug/free_rtos.a(port.o)
 .bss           0x0000000000000000        0x0 ../../../oslib/gcc/free_rtos/Debug/free_rtos.a(port.o)
 .text.vPortEndScheduler
                0x0000000000000000        0xc ../../../oslib/gcc/free_rtos/Debug/free_rtos.a(port.o)
 .text          0x0000000000000000        0x0 ../../../oslib/gcc/free_rtos/Debug/free_rtos.a(heap_3.o)
 .data          0x0000000000000000        0x0 ../../../oslib/gcc/free_rtos/Debug/free_rtos.a(heap_3.o)
 .bss           0x0000000000000000        0x0 ../../../oslib/gcc/free_rtos/Debug/free_rtos.a(heap_3.o)
 .text          0x0000000000000000        0x0 ../../../oslib/gcc/free_rtos/Debug/free_rtos.a(list.o)
 .data          0x0000000000000000        0x0 ../../../oslib/gcc/free_rtos/Debug/free_rtos.a(list.o)
 .bss           0x0000000000000000        0x0 ../../../oslib/gcc/free_rtos/Debug/free_rtos.a(list.o)
 .text          0x0000000000000000        0x0 ../../../driverlib/gcc/lib/Debug/libdriver.a(gpio.o)
 .data          0x0000000000000000        0x0 ../../../driverlib/gcc/lib/Debug/libdriver.a(gpio.o)
 .bss           0x0000000000000000        0x0 ../../../driverlib/gcc/lib/Debug/libdriver.a(gpio.o)
 .text.GPIOGetIntNumber
                0x0000000000000000       0x70 ../../../driverlib/gcc/lib/Debug/libdriver.a(gpio.o)
 .text.GPIODirModeGet
                0x0000000000000000       0x3a ../../../driverlib/gcc/lib/Debug/libdriver.a(gpio.o)
 .text.GPIOIntTypeGet
                0x0000000000000000       0x74 ../../../driverlib/gcc/lib/Debug/libdriver.a(gpio.o)
 .text.GPIOIntRegister
                0x0000000000000000       0x2a ../../../driverlib/gcc/lib/Debug/libdriver.a(gpio.o)
 .text.GPIOIntUnregister
                0x0000000000000000       0x26 ../../../driverlib/gcc/lib/Debug/libdriver.a(gpio.o)
 .text.GPIODMATriggerEnable
                0x0000000000000000       0x78 ../../../driverlib/gcc/lib/Debug/libdriver.a(gpio.o)
 .text.GPIODMATriggerDisable
                0x0000000000000000       0x78 ../../../driverlib/gcc/lib/Debug/libdriver.a(gpio.o)
 .text          0x0000000000000000        0x0 ../../../driverlib/gcc/lib/Debug/libdriver.a(i2c.o)
 .data          0x0000000000000000        0x0 ../../../driverlib/gcc/lib/Debug/libdriver.a(i2c.o)
 .bss           0x0000000000000000        0x0 ../../../driverlib/gcc/lib/Debug/libdriver.a(i2c.o)
 .rodata.g_ppui32I2CIntMap
                0x0000000000000000        0x8 ../../../driverlib/gcc/lib/Debug/libdriver.a(i2c.o)
 .rodata.g_i8I2CIntMapRows
                0x0000000000000000        0x4 ../../../driverlib/gcc/lib/Debug/libdriver.a(i2c.o)
 .text._I2CIntNumberGet
                0x0000000000000000       0x50 ../../../driverlib/gcc/lib/Debug/libdriver.a(i2c.o)
 .text.I2CSlaveInit
                0x0000000000000000       0x26 ../../../driverlib/gcc/lib/Debug/libdriver.a(i2c.o)
 .text.I2CSlaveAddressSet
                0x0000000000000000       0x46 ../../../driverlib/gcc/lib/Debug/libdriver.a(i2c.o)
 .text.I2CSlaveEnable
                0x0000000000000000       0x2e ../../../driverlib/gcc/lib/Debug/libdriver.a(i2c.o)
 .text.I2CMasterDisable
                0x0000000000000000       0x22 ../../../driverlib/gcc/lib/Debug/libdriver.a(i2c.o)
 .text.I2CSlaveDisable
                0x0000000000000000       0x2e ../../../driverlib/gcc/lib/Debug/libdriver.a(i2c.o)
 .text.I2CIntRegister
                0x0000000000000000       0x28 ../../../driverlib/gcc/lib/Debug/libdriver.a(i2c.o)
 .text.I2CIntUnregister
                0x0000000000000000       0x24 ../../../driverlib/gcc/lib/Debug/libdriver.a(i2c.o)
 .text.I2CMasterIntEnable
                0x0000000000000000       0x1c ../../../driverlib/gcc/lib/Debug/libdriver.a(i2c.o)
 .text.I2CSlaveIntEnable
                0x0000000000000000       0x26 ../../../driverlib/gcc/lib/Debug/libdriver.a(i2c.o)
 .text.I2CSlaveIntEnableEx
                0x0000000000000000       0x2a ../../../driverlib/gcc/lib/Debug/libdriver.a(i2c.o)
 .text.I2CMasterIntDisable
                0x0000000000000000       0x1c ../../../driverlib/gcc/lib/Debug/libdriver.a(i2c.o)
 .text.I2CMasterIntDisableEx
                0x0000000000000000       0x26 ../../../driverlib/gcc/lib/Debug/libdriver.a(i2c.o)
 .text.I2CSlaveIntDisable
                0x0000000000000000       0x26 ../../../driverlib/gcc/lib/Debug/libdriver.a(i2c.o)
 .text.I2CSlaveIntDisableEx
                0x0000000000000000       0x2a ../../../driverlib/gcc/lib/Debug/libdriver.a(i2c.o)
 .text.I2CMasterIntStatus
                0x0000000000000000       0x3e ../../../driverlib/gcc/lib/Debug/libdriver.a(i2c.o)
 .text.I2CSlaveIntStatus
                0x0000000000000000       0x42 ../../../driverlib/gcc/lib/Debug/libdriver.a(i2c.o)
 .text.I2CSlaveIntStatusEx
                0x0000000000000000       0x2e ../../../driverlib/gcc/lib/Debug/libdriver.a(i2c.o)
 .text.I2CMasterIntClearEx
                0x0000000000000000       0x1e ../../../driverlib/gcc/lib/Debug/libdriver.a(i2c.o)
 .text.I2CSlaveIntClear
                0x0000000000000000       0x1e ../../../driverlib/gcc/lib/Debug/libdriver.a(i2c.o)
 .text.I2CSlaveIntClearEx
                0x0000000000000000       0x20 ../../../driverlib/gcc/lib/Debug/libdriver.a(i2c.o)
 .text.I2CMasterLineStateGet
                0x0000000000000000       0x18 ../../../driverlib/gcc/lib/Debug/libdriver.a(i2c.o)
 .text.I2CMasterBusy
                0x0000000000000000       0x26 ../../../driverlib/gcc/lib/Debug/libdriver.a(i2c.o)
 .text.I2CMasterBusBusy
                0x0000000000000000       0x26 ../../../driverlib/gcc/lib/Debug/libdriver.a(i2c.o)
 .text.I2CSlaveACKOverride
                0x0000000000000000       0x46 ../../../driverlib/gcc/lib/Debug/libdriver.a(i2c.o)
 .text.I2CSlaveACKValueSet
                0x0000000000000000       0x46 ../../../driverlib/gcc/lib/Debug/libdriver.a(i2c.o)
 .text.I2CSlaveStatus
                0x0000000000000000       0x1a ../../../driverlib/gcc/lib/Debug/libdriver.a(i2c.o)
 .text.I2CSlaveDataPut
                0x0000000000000000       0x22 ../../../driverlib/gcc/lib/Debug/libdriver.a(i2c.o)
 .text.I2CSlaveDataGet
                0x0000000000000000       0x1a ../../../driverlib/gcc/lib/Debug/libdriver.a(i2c.o)
 .text.I2CTxFIFOConfigSet
                0x0000000000000000       0x3e ../../../driverlib/gcc/lib/Debug/libdriver.a(i2c.o)
 .text.I2CTxFIFOFlush
                0x0000000000000000       0x26 ../../../driverlib/gcc/lib/Debug/libdriver.a(i2c.o)
 .text.I2CRxFIFOConfigSet
                0x0000000000000000       0x3e ../../../driverlib/gcc/lib/Debug/libdriver.a(i2c.o)
 .text.I2CRxFIFOFlush
                0x0000000000000000       0x26 ../../../driverlib/gcc/lib/Debug/libdriver.a(i2c.o)
 .text.I2CFIFOStatus
                0x0000000000000000       0x1a ../../../driverlib/gcc/lib/Debug/libdriver.a(i2c.o)
 .text.I2CFIFODataPut
                0x0000000000000000       0x34 ../../../driverlib/gcc/lib/Debug/libdriver.a(i2c.o)
 .text.I2CFIFODataPutNonBlocking
                0x0000000000000000       0x38 ../../../driverlib/gcc/lib/Debug/libdriver.a(i2c.o)
 .text.I2CFIFODataGet
                0x0000000000000000       0x2c ../../../driverlib/gcc/lib/Debug/libdriver.a(i2c.o)
 .text.I2CFIFODataGetNonBlocking
                0x0000000000000000       0x38 ../../../driverlib/gcc/lib/Debug/libdriver.a(i2c.o)
 .text.I2CMasterBurstLengthSet
                0x0000000000000000       0x20 ../../../driverlib/gcc/lib/Debug/libdriver.a(i2c.o)
 .text.I2CMasterBurstCountGet
                0x0000000000000000       0x18 ../../../driverlib/gcc/lib/Debug/libdriver.a(i2c.o)
 .text.I2CMasterGlitchFilterConfigSet
                0x0000000000000000       0x26 ../../../driverlib/gcc/lib/Debug/libdriver.a(i2c.o)
 .text.I2CSlaveFIFOEnable
                0x0000000000000000       0x24 ../../../driverlib/gcc/lib/Debug/libdriver.a(i2c.o)
 .text.I2CSlaveFIFODisable
                0x0000000000000000       0x1e ../../../driverlib/gcc/lib/Debug/libdriver.a(i2c.o)
 .text          0x0000000000000000        0x0 ../../../driverlib/gcc/lib/Debug/libdriver.a(interrupt.o)
 .data          0x0000000000000000        0x0 ../../../driverlib/gcc/lib/Debug/libdriver.a(interrupt.o)
 .bss           0x0000000000000000        0x0 ../../../driverlib/gcc/lib/Debug/libdriver.a(interrupt.o)
 .rodata.g_pulPriority
                0x0000000000000000       0x20 ../../../driverlib/gcc/lib/Debug/libdriver.a(interrupt.o)
 .rodata.g_pulPendRegs
                0x0000000000000000       0x18 ../../../driverlib/gcc/lib/Debug/libdriver.a(interrupt.o)
 .text.IntMasterDisable
                0x0000000000000000       0x10 ../../../driverlib/gcc/lib/Debug/libdriver.a(interrupt.o)
 .text.IntVTableBaseSet
                0x0000000000000000       0x1c ../../../driverlib/gcc/lib/Debug/libdriver.a(interrupt.o)
 .text.IntPriorityGroupingSet
                0x0000000000000000       0x30 ../../../driverlib/gcc/lib/Debug/libdriver.a(interrupt.o)
 .text.IntPriorityGroupingGet
                0x0000000000000000       0x48 ../../../driverlib/gcc/lib/Debug/libdriver.a(interrupt.o)
 .text.IntPriorityGet
                0x0000000000000000       0x30 ../../../driverlib/gcc/lib/Debug/libdriver.a(interrupt.o)
 .text.IntPendSet
                0x0000000000000000       0x9c ../../../driverlib/gcc/lib/Debug/libdriver.a(interrupt.o)
 .text.IntPriorityMaskSet
                0x0000000000000000       0x16 ../../../driverlib/gcc/lib/Debug/libdriver.a(interrupt.o)
 .text.IntPriorityMaskGet
                0x0000000000000000        0xe ../../../driverlib/gcc/lib/Debug/libdriver.a(interrupt.o)
 .text          0x0000000000000000        0x0 ../../../driverlib/gcc/lib/Debug/libdriver.a(i2s.o)
 .data          0x0000000000000000        0x0 ../../../driverlib/gcc/lib/Debug/libdriver.a(i2s.o)
 .bss           0x0000000000000000        0x0 ../../../driverlib/gcc/lib/Debug/libdriver.a(i2s.o)
 .text.I2SDisable
                0x0000000000000000       0x2a ../../../driverlib/gcc/lib/Debug/libdriver.a(i2s.o)
 .text.I2SDataPut
                0x0000000000000000       0x3e ../../../driverlib/gcc/lib/Debug/libdriver.a(i2s.o)
 .text.I2SDataPutNonBlocking
                0x0000000000000000       0x44 ../../../driverlib/gcc/lib/Debug/libdriver.a(i2s.o)
 .text.I2SDataGet
                0x0000000000000000       0x3e ../../../driverlib/gcc/lib/Debug/libdriver.a(i2s.o)
 .text.I2SDataGetNonBlocking
                0x0000000000000000       0x44 ../../../driverlib/gcc/lib/Debug/libdriver.a(i2s.o)
 .text.I2STxFIFODisable
                0x0000000000000000       0x1e ../../../driverlib/gcc/lib/Debug/libdriver.a(i2s.o)
 .text.I2SRxFIFODisable
                0x0000000000000000       0x20 ../../../driverlib/gcc/lib/Debug/libdriver.a(i2s.o)
 .text.I2STxFIFOStatusGet
                0x0000000000000000       0x1c ../../../driverlib/gcc/lib/Debug/libdriver.a(i2s.o)
 .text.I2SRxFIFOStatusGet
                0x0000000000000000       0x1c ../../../driverlib/gcc/lib/Debug/libdriver.a(i2s.o)
 .text.I2SIntDisable
                0x0000000000000000       0x54 ../../../driverlib/gcc/lib/Debug/libdriver.a(i2s.o)
 .text.I2SIntStatus
                0x0000000000000000       0x44 ../../../driverlib/gcc/lib/Debug/libdriver.a(i2s.o)
 .text.I2SIntUnregister
                0x0000000000000000       0x1c ../../../driverlib/gcc/lib/Debug/libdriver.a(i2s.o)
 .text.I2STxActiveSlotSet
                0x0000000000000000       0x1e ../../../driverlib/gcc/lib/Debug/libdriver.a(i2s.o)
 .text.I2SRxActiveSlotSet
                0x0000000000000000       0x1e ../../../driverlib/gcc/lib/Debug/libdriver.a(i2s.o)
 .text          0x0000000000000000        0x0 ../../../driverlib/gcc/lib/Debug/libdriver.a(pin.o)
 .data          0x0000000000000000        0x0 ../../../driverlib/gcc/lib/Debug/libdriver.a(pin.o)
 .bss           0x0000000000000000        0x0 ../../../driverlib/gcc/lib/Debug/libdriver.a(pin.o)
 .text.PinModeGet
                0x0000000000000000       0x3c ../../../driverlib/gcc/lib/Debug/libdriver.a(pin.o)
 .text.PinDirModeSet
                0x0000000000000000       0x44 ../../../driverlib/gcc/lib/Debug/libdriver.a(pin.o)
 .text.PinDirModeGet
                0x0000000000000000       0x3c ../../../driverlib/gcc/lib/Debug/libdriver.a(pin.o)
 .text.PinConfigGet
                0x0000000000000000       0x50 ../../../driverlib/gcc/lib/Debug/libdriver.a(pin.o)
 .text.PinTypeSPI
                0x0000000000000000       0x24 ../../../driverlib/gcc/lib/Debug/libdriver.a(pin.o)
 .text.PinTypeTimer
                0x0000000000000000       0x24 ../../../driverlib/gcc/lib/Debug/libdriver.a(pin.o)
 .text.PinTypeCamera
                0x0000000000000000       0x24 ../../../driverlib/gcc/lib/Debug/libdriver.a(pin.o)
 .text.PinTypeADC
                0x0000000000000000       0x1e ../../../driverlib/gcc/lib/Debug/libdriver.a(pin.o)
 .text.PinTypeSDHost
                0x0000000000000000       0x24 ../../../driverlib/gcc/lib/Debug/libdriver.a(pin.o)
 .text          0x0000000000000000        0x0 ../../../driverlib/gcc/lib/Debug/libdriver.a(prcm.o)
 .data          0x0000000000000000        0x0 ../../../driverlib/gcc/lib/Debug/libdriver.a(prcm.o)
 .bss           0x0000000000000000        0x0 ../../../driverlib/gcc/lib/Debug/libdriver.a(prcm.o)
 .text.RTCUseSet
                0x0000000000000000       0x30 ../../../driverlib/gcc/lib/Debug/libdriver.a(prcm.o)
 .text.IsRTCUsed
                0x0000000000000000       0x30 ../../../driverlib/gcc/lib/Debug/libdriver.a(prcm.o)
 .text.RTCU16MSecRegRead
                0x0000000000000000       0x28 ../../../driverlib/gcc/lib/Debug/libdriver.a(prcm.o)
 .text.RTCU16MSecRegWrite
                0x0000000000000000       0x40 ../../../driverlib/gcc/lib/Debug/libdriver.a(prcm.o)
 .text.RTCU32SecRegRead
                0x0000000000000000       0x14 ../../../driverlib/gcc/lib/Debug/libdriver.a(prcm.o)
 .text.RTCU32SecRegWrite
                0x0000000000000000       0x1c ../../../driverlib/gcc/lib/Debug/libdriver.a(prcm.o)
 .text.PRCMMCUReset
                0x0000000000000000       0x28 ../../../driverlib/gcc/lib/Debug/libdriver.a(prcm.o)
 .text.PRCMLPDSRestoreInfoSet
                0x0000000000000000       0x28 ../../../driverlib/gcc/lib/Debug/libdriver.a(prcm.o)
 .text.PRCMLPDSEnter
                0x0000000000000000       0x50 ../../../driverlib/gcc/lib/Debug/libdriver.a(prcm.o)
 .text.PRCMLPDSEnterKeepDebugIf
                0x0000000000000000       0x40 ../../../driverlib/gcc/lib/Debug/libdriver.a(prcm.o)
 .text.PRCMLPDSWakeupSourceEnable
                0x0000000000000000       0x30 ../../../driverlib/gcc/lib/Debug/libdriver.a(prcm.o)
 .text.PRCMLPDSWakeupSourceDisable
                0x0000000000000000       0x24 ../../../driverlib/gcc/lib/Debug/libdriver.a(prcm.o)
 .text.PRCMLPDSWakeupCauseGet
                0x0000000000000000       0x14 ../../../driverlib/gcc/lib/Debug/libdriver.a(prcm.o)
 .text.PRCMLPDSIntervalSet
                0x0000000000000000       0x34 ../../../driverlib/gcc/lib/Debug/libdriver.a(prcm.o)
 .text.PRCMLPDSWakeUpGPIOSelect
                0x0000000000000000       0x2c ../../../driverlib/gcc/lib/Debug/libdriver.a(prcm.o)
 .text.PRCMSleepEnter
                0x0000000000000000        0xc ../../../driverlib/gcc/lib/Debug/libdriver.a(prcm.o)
 .text.PRCMSRAMRetentionEnable
                0x0000000000000000       0x2c ../../../driverlib/gcc/lib/Debug/libdriver.a(prcm.o)
 .text.PRCMSRAMRetentionDisable
                0x0000000000000000       0x34 ../../../driverlib/gcc/lib/Debug/libdriver.a(prcm.o)
 .text.PRCMHibernateWakeupSourceEnable
                0x0000000000000000       0x50 ../../../driverlib/gcc/lib/Debug/libdriver.a(prcm.o)
 .text.PRCMHibernateWakeupSourceDisable
                0x0000000000000000       0x54 ../../../driverlib/gcc/lib/Debug/libdriver.a(prcm.o)
 .text.PRCMHibernateWakeupCauseGet
                0x0000000000000000       0x1c ../../../driverlib/gcc/lib/Debug/libdriver.a(prcm.o)
 .text.PRCMHibernateIntervalSet
                0x0000000000000000       0xb4 ../../../driverlib/gcc/lib/Debug/libdriver.a(prcm.o)
 .text.PRCMHibernateWakeUpGPIOSelect
                0x0000000000000000       0x74 ../../../driverlib/gcc/lib/Debug/libdriver.a(prcm.o)
 .text.PRCMHibernateEnter
                0x0000000000000000       0x14 ../../../driverlib/gcc/lib/Debug/libdriver.a(prcm.o)
 .text.PRCMSlowClkCtrGet
                0x0000000000000000       0x70 ../../../driverlib/gcc/lib/Debug/libdriver.a(prcm.o)
 .text.PRCMSlowClkCtrFastGet
                0x0000000000000000       0x60 ../../../driverlib/gcc/lib/Debug/libdriver.a(prcm.o)
 .text.PRCMSlowClkCtrMatchSet
                0x0000000000000000       0x40 ../../../driverlib/gcc/lib/Debug/libdriver.a(prcm.o)
 .text.PRCMSlowClkCtrMatchGet
                0x0000000000000000       0x64 ../../../driverlib/gcc/lib/Debug/libdriver.a(prcm.o)
 .text.PRCMOCRRegisterWrite
                0x0000000000000000       0x28 ../../../driverlib/gcc/lib/Debug/libdriver.a(prcm.o)
 .text.PRCMOCRRegisterRead
                0x0000000000000000       0x28 ../../../driverlib/gcc/lib/Debug/libdriver.a(prcm.o)
 .text.PRCMIntRegister
                0x0000000000000000       0x1e ../../../driverlib/gcc/lib/Debug/libdriver.a(prcm.o)
 .text.PRCMIntUnregister
                0x0000000000000000       0x14 ../../../driverlib/gcc/lib/Debug/libdriver.a(prcm.o)
 .text.PRCMIntEnable
                0x0000000000000000       0x48 ../../../driverlib/gcc/lib/Debug/libdriver.a(prcm.o)
 .text.PRCMIntDisable
                0x0000000000000000       0x48 ../../../driverlib/gcc/lib/Debug/libdriver.a(prcm.o)
 .text.PRCMIntStatus
                0x0000000000000000       0x14 ../../../driverlib/gcc/lib/Debug/libdriver.a(prcm.o)
 .text.PRCMRTCInUseSet
                0x0000000000000000        0xc ../../../driverlib/gcc/lib/Debug/libdriver.a(prcm.o)
 .text.PRCMRTCInUseGet
                0x0000000000000000       0x18 ../../../driverlib/gcc/lib/Debug/libdriver.a(prcm.o)
 .text.PRCMRTCSet
                0x0000000000000000       0xb2 ../../../driverlib/gcc/lib/Debug/libdriver.a(prcm.o)
 .text.PRCMRTCGet
                0x0000000000000000       0xba ../../../driverlib/gcc/lib/Debug/libdriver.a(prcm.o)
 .text.PRCMRTCMatchSet
                0x0000000000000000       0xf8 ../../../driverlib/gcc/lib/Debug/libdriver.a(prcm.o)
 .text.PRCMRTCMatchGet
                0x0000000000000000       0xbc ../../../driverlib/gcc/lib/Debug/libdriver.a(prcm.o)
 .text.PRCMCameraFreqSet
                0x0000000000000000       0x50 ../../../driverlib/gcc/lib/Debug/libdriver.a(prcm.o)
 .text          0x0000000000000000        0x0 ../../../driverlib/gcc/lib/Debug/libdriver.a(spi.o)
 .data          0x0000000000000000        0x0 ../../../driverlib/gcc/lib/Debug/libdriver.a(spi.o)
 .bss           0x0000000000000000        0x0 ../../../driverlib/gcc/lib/Debug/libdriver.a(spi.o)
 .rodata.g_ppulSPIIntMap
                0x0000000000000000       0x24 ../../../driverlib/gcc/lib/Debug/libdriver.a(spi.o)
 .text.SPITransfer8
                0x0000000000000000       0xe8 ../../../driverlib/gcc/lib/Debug/libdriver.a(spi.o)
 .text.SPITransfer16
                0x0000000000000000      0x102 ../../../driverlib/gcc/lib/Debug/libdriver.a(spi.o)
 .text.SPITransfer32
                0x0000000000000000      0x100 ../../../driverlib/gcc/lib/Debug/libdriver.a(spi.o)
 .text.SPIIntNumberGet
                0x0000000000000000       0x58 ../../../driverlib/gcc/lib/Debug/libdriver.a(spi.o)
 .text.SPIDataGetNonBlocking
                0x0000000000000000       0x3a ../../../driverlib/gcc/lib/Debug/libdriver.a(spi.o)
 .text.SPIDataGet
                0x0000000000000000       0x32 ../../../driverlib/gcc/lib/Debug/libdriver.a(spi.o)
 .text.SPIDataPutNonBlocking
                0x0000000000000000       0x3a ../../../driverlib/gcc/lib/Debug/libdriver.a(spi.o)
 .text.SPIDataPut
                0x0000000000000000       0x32 ../../../driverlib/gcc/lib/Debug/libdriver.a(spi.o)
 .text.SPIFIFOLevelGet
                0x0000000000000000       0x32 ../../../driverlib/gcc/lib/Debug/libdriver.a(spi.o)
 .text.SPIIntRegister
                0x0000000000000000       0x2a ../../../driverlib/gcc/lib/Debug/libdriver.a(spi.o)
 .text.SPIIntUnregister
                0x0000000000000000       0x26 ../../../driverlib/gcc/lib/Debug/libdriver.a(spi.o)
 .text.SPIIntDisable
                0x0000000000000000       0x6c ../../../driverlib/gcc/lib/Debug/libdriver.a(spi.o)
 .text.SPIIntStatus
                0x0000000000000000       0x88 ../../../driverlib/gcc/lib/Debug/libdriver.a(spi.o)
 .text.SPITransfer
                0x0000000000000000       0x8e ../../../driverlib/gcc/lib/Debug/libdriver.a(spi.o)
 .text          0x0000000000000000        0x0 ../../../driverlib/gcc/lib/Debug/libdriver.a(timer.o)
 .data          0x0000000000000000        0x0 ../../../driverlib/gcc/lib/Debug/libdriver.a(timer.o)
 .bss           0x0000000000000000        0x0 ../../../driverlib/gcc/lib/Debug/libdriver.a(timer.o)
 .text.TimerDisable
                0x0000000000000000       0x2c ../../../driverlib/gcc/lib/Debug/libdriver.a(timer.o)
 .text.TimerControlLevel
                0x0000000000000000       0x46 ../../../driverlib/gcc/lib/Debug/libdriver.a(timer.o)
 .text.TimerControlEvent
                0x0000000000000000       0x3e ../../../driverlib/gcc/lib/Debug/libdriver.a(timer.o)
 .text.TimerControlStall
                0x0000000000000000       0x46 ../../../driverlib/gcc/lib/Debug/libdriver.a(timer.o)
 .text.TimerPrescaleGet
                0x0000000000000000       0x28 ../../../driverlib/gcc/lib/Debug/libdriver.a(timer.o)
 .text.TimerPrescaleMatchSet
                0x0000000000000000       0x3c ../../../driverlib/gcc/lib/Debug/libdriver.a(timer.o)
 .text.TimerPrescaleMatchGet
                0x0000000000000000       0x28 ../../../driverlib/gcc/lib/Debug/libdriver.a(timer.o)
 .text.TimerLoadGet
                0x0000000000000000       0x28 ../../../driverlib/gcc/lib/Debug/libdriver.a(timer.o)
 .text.TimerValueSet
                0x0000000000000000       0x32 ../../../driverlib/gcc/lib/Debug/libdriver.a(timer.o)
 .text.TimerMatchSet
                0x0000000000000000       0x3c ../../../driverlib/gcc/lib/Debug/libdriver.a(timer.o)
 .text.TimerMatchGet
                0x0000000000000000       0x28 ../../../driverlib/gcc/lib/Debug/libdriver.a(timer.o)
 .text.TimerIntRegister
                0x0000000000000000       0x80 ../../../driverlib/gcc/lib/Debug/libdriver.a(timer.o)
 .text.TimerIntUnregister
                0x0000000000000000       0x78 ../../../driverlib/gcc/lib/Debug/libdriver.a(timer.o)
 .text.TimerIntEnable
                0x0000000000000000       0x26 ../../../driverlib/gcc/lib/Debug/libdriver.a(timer.o)
 .text.TimerIntDisable
                0x0000000000000000       0x26 ../../../driverlib/gcc/lib/Debug/libdriver.a(timer.o)
 .text.TimerIntStatus
                0x0000000000000000       0x2a ../../../driverlib/gcc/lib/Debug/libdriver.a(timer.o)
 .text.TimerIntClear
                0x0000000000000000       0x1e ../../../driverlib/gcc/lib/Debug/libdriver.a(timer.o)
 .text.TimerDMAEventSet
                0x0000000000000000       0x1e ../../../driverlib/gcc/lib/Debug/libdriver.a(timer.o)
 .text.TimerDMAEventGet
                0x0000000000000000       0x18 ../../../driverlib/gcc/lib/Debug/libdriver.a(timer.o)
 .text          0x0000000000000000        0x0 ../../../driverlib/gcc/lib/Debug/libdriver.a(uart.o)
 .data          0x0000000000000000        0x0 ../../../driverlib/gcc/lib/Debug/libdriver.a(uart.o)
 .bss           0x0000000000000000        0x0 ../../../driverlib/gcc/lib/Debug/libdriver.a(uart.o)
 .rodata.g_ppulUARTIntMap
                0x0000000000000000       0x10 ../../../driverlib/gcc/lib/Debug/libdriver.a(uart.o)
 .text.UARTIntNumberGet
                0x0000000000000000       0x48 ../../../driverlib/gcc/lib/Debug/libdriver.a(uart.o)
 .text.UARTParityModeSet
                0x0000000000000000       0x2a ../../../driverlib/gcc/lib/Debug/libdriver.a(uart.o)
 .text.UARTParityModeGet
                0x0000000000000000       0x1c ../../../driverlib/gcc/lib/Debug/libdriver.a(uart.o)
 .text.UARTFIFOLevelSet
                0x0000000000000000       0x24 ../../../driverlib/gcc/lib/Debug/libdriver.a(uart.o)
 .text.UARTFIFOLevelGet
                0x0000000000000000       0x32 ../../../driverlib/gcc/lib/Debug/libdriver.a(uart.o)
 .text.UARTConfigGetExpClk
                0x0000000000000000       0x62 ../../../driverlib/gcc/lib/Debug/libdriver.a(uart.o)
 .text.UARTFIFOEnable
                0x0000000000000000       0x22 ../../../driverlib/gcc/lib/Debug/libdriver.a(uart.o)
 .text.UARTFIFODisable
                0x0000000000000000       0x22 ../../../driverlib/gcc/lib/Debug/libdriver.a(uart.o)
 .text.UARTModemControlSet
                0x0000000000000000       0x32 ../../../driverlib/gcc/lib/Debug/libdriver.a(uart.o)
 .text.UARTModemControlClear
                0x0000000000000000       0x34 ../../../driverlib/gcc/lib/Debug/libdriver.a(uart.o)
 .text.UARTModemControlGet
                0x0000000000000000       0x1c ../../../driverlib/gcc/lib/Debug/libdriver.a(uart.o)
 .text.UARTModemStatusGet
                0x0000000000000000       0x1c ../../../driverlib/gcc/lib/Debug/libdriver.a(uart.o)
 .text.UARTFlowControlSet
                0x0000000000000000       0x2a ../../../driverlib/gcc/lib/Debug/libdriver.a(uart.o)
 .text.UARTFlowControlGet
                0x0000000000000000       0x1c ../../../driverlib/gcc/lib/Debug/libdriver.a(uart.o)
 .text.UARTTxIntModeSet
                0x0000000000000000       0x2a ../../../driverlib/gcc/lib/Debug/libdriver.a(uart.o)
 .text.UARTTxIntModeGet
                0x0000000000000000       0x1c ../../../driverlib/gcc/lib/Debug/libdriver.a(uart.o)
 .text.UARTCharsAvail
                0x0000000000000000       0x26 ../../../driverlib/gcc/lib/Debug/libdriver.a(uart.o)
 .text.UARTSpaceAvail
                0x0000000000000000       0x26 ../../../driverlib/gcc/lib/Debug/libdriver.a(uart.o)
 .text.UARTCharGetNonBlocking
                0x0000000000000000       0x2a ../../../driverlib/gcc/lib/Debug/libdriver.a(uart.o)
 .text.UARTCharGet
                0x0000000000000000       0x26 ../../../driverlib/gcc/lib/Debug/libdriver.a(uart.o)
 .text.UARTCharPutNonBlocking
                0x0000000000000000       0x30 ../../../driverlib/gcc/lib/Debug/libdriver.a(uart.o)
 .text.UARTBreakCtl
                0x0000000000000000       0x38 ../../../driverlib/gcc/lib/Debug/libdriver.a(uart.o)
 .text.UARTBusy
                0x0000000000000000       0x26 ../../../driverlib/gcc/lib/Debug/libdriver.a(uart.o)
 .text.UARTIntRegister
                0x0000000000000000       0x2a ../../../driverlib/gcc/lib/Debug/libdriver.a(uart.o)
 .text.UARTIntUnregister
                0x0000000000000000       0x26 ../../../driverlib/gcc/lib/Debug/libdriver.a(uart.o)
 .text.UARTIntEnable
                0x0000000000000000       0x26 ../../../driverlib/gcc/lib/Debug/libdriver.a(uart.o)
 .text.UARTIntDisable
                0x0000000000000000       0x26 ../../../driverlib/gcc/lib/Debug/libdriver.a(uart.o)
 .text.UARTIntStatus
                0x0000000000000000       0x2a ../../../driverlib/gcc/lib/Debug/libdriver.a(uart.o)
 .text.UARTIntClear
                0x0000000000000000       0x1e ../../../driverlib/gcc/lib/Debug/libdriver.a(uart.o)
 .text.UARTDMAEnable
                0x0000000000000000       0x26 ../../../driverlib/gcc/lib/Debug/libdriver.a(uart.o)
 .text.UARTDMADisable
                0x0000000000000000       0x26 ../../../driverlib/gcc/lib/Debug/libdriver.a(uart.o)
 .text.UARTRxErrorGet
                0x0000000000000000       0x1c ../../../driverlib/gcc/lib/Debug/libdriver.a(uart.o)
 .text.UARTRxErrorClear
                0x0000000000000000       0x1c ../../../driverlib/gcc/lib/Debug/libdriver.a(uart.o)
 .text          0x0000000000000000        0x0 ../../../driverlib/gcc/lib/Debug/libdriver.a(udma.o)
 .data          0x0000000000000000        0x0 ../../../driverlib/gcc/lib/Debug/libdriver.a(udma.o)
 .bss           0x0000000000000000        0x0 ../../../driverlib/gcc/lib/Debug/libdriver.a(udma.o)
 .text.uDMADisable
                0x0000000000000000       0x18 ../../../driverlib/gcc/lib/Debug/libdriver.a(udma.o)
 .text.uDMAErrorStatusGet
                0x0000000000000000       0x14 ../../../driverlib/gcc/lib/Debug/libdriver.a(udma.o)
 .text.uDMAErrorStatusClear
                0x0000000000000000       0x18 ../../../driverlib/gcc/lib/Debug/libdriver.a(udma.o)
 .text.uDMAChannelDisable
                0x0000000000000000       0x24 ../../../driverlib/gcc/lib/Debug/libdriver.a(udma.o)
 .text.uDMAChannelIsEnabled
                0x0000000000000000       0x34 ../../../driverlib/gcc/lib/Debug/libdriver.a(udma.o)
 .text.uDMAControlAlternateBaseGet
                0x0000000000000000       0x14 ../../../driverlib/gcc/lib/Debug/libdriver.a(udma.o)
 .text.uDMAChannelRequest
                0x0000000000000000       0x24 ../../../driverlib/gcc/lib/Debug/libdriver.a(udma.o)
 .text.uDMAChannelAttributeGet
                0x0000000000000000       0x98 ../../../driverlib/gcc/lib/Debug/libdriver.a(udma.o)
 .text.uDMAChannelScatterGatherSet
                0x0000000000000000       0x88 ../../../driverlib/gcc/lib/Debug/libdriver.a(udma.o)
 .text.uDMAChannelSizeGet
                0x0000000000000000       0x48 ../../../driverlib/gcc/lib/Debug/libdriver.a(udma.o)
 .text.uDMAChannelModeGet
                0x0000000000000000       0x54 ../../../driverlib/gcc/lib/Debug/libdriver.a(udma.o)
 .text.uDMAIntRegister
                0x0000000000000000       0x20 ../../../driverlib/gcc/lib/Debug/libdriver.a(udma.o)
 .text.uDMAIntUnregister
                0x0000000000000000       0x1c ../../../driverlib/gcc/lib/Debug/libdriver.a(udma.o)
 .text          0x0000000000000000        0x0 ../../../driverlib/gcc/lib/Debug/libdriver.a(utils.o)
 .data          0x0000000000000000        0x0 ../../../driverlib/gcc/lib/Debug/libdriver.a(utils.o)
 .bss           0x0000000000000000        0x0 ../../../driverlib/gcc/lib/Debug/libdriver.a(utils.o)
 .text          0x0000000000000000        0x0 ../../../driverlib/gcc/lib/Debug/libdriver.a(cpu.o)
 .data          0x0000000000000000        0x0 ../../../driverlib/gcc/lib/Debug/libdriver.a(cpu.o)
 .bss           0x0000000000000000        0x0 ../../../driverlib/gcc/lib/Debug/libdriver.a(cpu.o)
 .text.CPUcpsid
                0x0000000000000000       0x16 ../../../driverlib/gcc/lib/Debug/libdriver.a(cpu.o)
 .text.CPUprimask
                0x0000000000000000        0xc ../../../driverlib/gcc/lib/Debug/libdriver.a(cpu.o)
 .text.CPUwfi   0x0000000000000000        0xe ../../../driverlib/gcc/lib/Debug/libdriver.a(cpu.o)
 .text.CPUbasepriSet
                0x0000000000000000       0x10 ../../../driverlib/gcc/lib/Debug/libdriver.a(cpu.o)
 .text.CPUbasepriGet
                0x0000000000000000        0xc ../../../driverlib/gcc/lib/Debug/libdriver.a(cpu.o)
 .text          0x0000000000000000        0x0 ../../../driverlib/gcc/lib/Debug/libdriver.a(flash.o)
 .data          0x0000000000000000        0x0 ../../../driverlib/gcc/lib/Debug/libdriver.a(flash.o)
 .bss           0x0000000000000000        0x0 ../../../driverlib/gcc/lib/Debug/libdriver.a(flash.o)
 .rodata.g_pulFMPPERegs
                0x0000000000000000       0x40 ../../../driverlib/gcc/lib/Debug/libdriver.a(flash.o)
 .rodata.g_pulFMPRERegs
                0x0000000000000000       0x40 ../../../driverlib/gcc/lib/Debug/libdriver.a(flash.o)
 .text.FlashDisable
                0x0000000000000000       0x50 ../../../driverlib/gcc/lib/Debug/libdriver.a(flash.o)
 .text.FlashErase
                0x0000000000000000       0x60 ../../../driverlib/gcc/lib/Debug/libdriver.a(flash.o)
 .text.FlashEraseNonBlocking
                0x0000000000000000       0x38 ../../../driverlib/gcc/lib/Debug/libdriver.a(flash.o)
 .text.FlashMassErase
                0x0000000000000000       0x50 ../../../driverlib/gcc/lib/Debug/libdriver.a(flash.o)
 .text.FlashMassEraseNonBlocking
                0x0000000000000000       0x28 ../../../driverlib/gcc/lib/Debug/libdriver.a(flash.o)
 .text.FlashProgram
                0x0000000000000000       0xb4 ../../../driverlib/gcc/lib/Debug/libdriver.a(flash.o)
 .text.FlashProgramNonBlocking
                0x0000000000000000       0xa4 ../../../driverlib/gcc/lib/Debug/libdriver.a(flash.o)
 .text.FlashProtectGet
                0x0000000000000000       0x78 ../../../driverlib/gcc/lib/Debug/libdriver.a(flash.o)
 .text.FlashIntRegister
                0x0000000000000000       0x1e ../../../driverlib/gcc/lib/Debug/libdriver.a(flash.o)
 .text.FlashIntUnregister
                0x0000000000000000       0x14 ../../../driverlib/gcc/lib/Debug/libdriver.a(flash.o)
 .text.FlashIntEnable
                0x0000000000000000       0x24 ../../../driverlib/gcc/lib/Debug/libdriver.a(flash.o)
 .text.FlashIntDisable
                0x0000000000000000       0x24 ../../../driverlib/gcc/lib/Debug/libdriver.a(flash.o)
 .text.FlashIntStatus
                0x0000000000000000       0x2c ../../../driverlib/gcc/lib/Debug/libdriver.a(flash.o)
 .text.FlashIntClear
                0x0000000000000000       0x1c ../../../driverlib/gcc/lib/Debug/libdriver.a(flash.o)
 .debug_info    0x0000000000000000      0x325 ../../../driverlib/gcc/lib/Debug/libdriver.a(flash.o)
 .debug_abbrev  0x0000000000000000      0x1b1 ../../../driverlib/gcc/lib/Debug/libdriver.a(flash.o)
 .debug_aranges
                0x0000000000000000       0x88 ../../../driverlib/gcc/lib/Debug/libdriver.a(flash.o)
 .debug_ranges  0x0000000000000000       0x78 ../../../driverlib/gcc/lib/Debug/libdriver.a(flash.o)
 .debug_line    0x0000000000000000      0x367 ../../../driverlib/gcc/lib/Debug/libdriver.a(flash.o)
 .debug_str     0x0000000000000000      0x2b8 ../../../driverlib/gcc/lib/Debug/libdriver.a(flash.o)
 .comment       0x0000000000000000       0x4a ../../../driverlib/gcc/lib/Debug/libdriver.a(flash.o)
 .debug_frame   0x0000000000000000      0x214 ../../../driverlib/gcc/lib/Debug/libdriver.a(flash.o)
 .ARM.attributes
                0x0000000000000000       0x2e ../../../driverlib/gcc/lib/Debug/libdriver.a(flash.o)
 .text          0x0000000000000000        0x0 /Applications/ARM/bin/../lib/gcc/arm-none-eabi/10.3.1/../../../../arm-none-eabi/lib/thumb/v7e-m/nofp/libc_nano.a(lib_a-malloc.o)
 .data          0x0000000000000000        0x0 /Applications/ARM/bin/../lib/gcc/arm-none-eabi/10.3.1/../../../../arm-none-eabi/lib/thumb/v7e-m/nofp/libc_nano.a(lib_a-malloc.o)
 .bss           0x0000000000000000        0x0 /Applications/ARM/bin/../lib/gcc/arm-none-eabi/10.3.1/../../../../arm-none-eabi/lib/thumb/v7e-m/nofp/libc_nano.a(lib_a-malloc.o)
 .text          0x0000000000000000        0x0 /Applications/ARM/bin/../lib/gcc/arm-none-eabi/10.3.1/../../../../arm-none-eabi/lib/thumb/v7e-m/nofp/libc_nano.a(lib_a-memcpy-stub.o)
 .data          0x0000000000000000        0x0 /Applications/ARM/bin/../lib/gcc/arm-none-eabi/10.3.1/../../../../arm-none-eabi/lib/thumb/v7e-m/nofp/libc_nano.a(lib_a-memcpy-stub.o)
 .bss           0x0000000000000000        0x0 /Applications/ARM/bin/../lib/gcc/arm-none-eabi/10.3.1/../../../../arm-none-eabi/lib/thumb/v7e-m/nofp/libc_nano.a(lib_a-memcpy-stub.o)
 .text          0x0000000000000000        0x0 /Applications/ARM/bin/../lib/gcc/arm-none-eabi/10.3.1/../../../../arm-none-eabi/lib/thumb/v7e-m/nofp/libc_nano.a(lib_a-memmove.o)
 .data          0x0000000000000000        0x0 /Applications/ARM/bin/../lib/gcc/arm-none-eabi/10.3.1/../../../../arm-none-eabi/lib/thumb/v7e-m/nofp/libc_nano.a(lib_a-memmove.o)
 .bss           0x0000000000000000        0x0 /Applications/ARM/bin/../lib/gcc/arm-none-eabi/10.3.1/../../../../arm-none-eabi/lib/thumb/v7e-m/nofp/libc_nano.a(lib_a-memmove.o)
 .text          0x0000000000000000        0x0 /Applications/ARM/bin/../lib/gcc/arm-none-eabi/10.3.1/../../../../arm-none-eabi/lib/thumb/v7e-m/nofp/libc_nano.a(lib_a-memset.o)
 .data          0x0000000000000000        0x0 /Applications/ARM/bin/../lib/gcc/arm-none-eabi/10.3.1/../../../../arm-none-eabi/lib/thumb/v7e-m/nofp/libc_nano.a(lib_a-memset.o)
 .bss           0x0000000000000000        0x0 /Applications/ARM/bin/../lib/gcc/arm-none-eabi/10.3.1/../../../../arm-none-eabi/lib/thumb/v7e-m/nofp/libc_nano.a(lib_a-memset.o)
 .text          0x0000000000000000        0x0 /Applications/ARM/bin/../lib/gcc/arm-none-eabi/10.3.1/../../../../arm-none-eabi/lib/thumb/v7e-m/nofp/libc_nano.a(lib_a-nano-freer.o)
 .data          0x0000000000000000        0x0 /Applications/ARM/bin/../lib/gcc/arm-none-eabi/10.3.1/../../../../arm-none-eabi/lib/thumb/v7e-m/nofp/libc_nano.a(lib_a-nano-freer.o)
 .bss           0x0000000000000000        0x0 /Applications/ARM/bin/../lib/gcc/arm-none-eabi/10.3.1/../../../../arm-none-eabi/lib/thumb/v7e-m/nofp/libc_nano.a(lib_a-nano-freer.o)
 .text          0x0000000000000000        0x0 /Applications/ARM/bin/../lib/gcc/arm-none-eabi/10.3.1/../../../../arm-none-eabi/lib/thumb/v7e-m/nofp/libc_nano.a(lib_a-nano-mallocr.o)
 .data          0x0000000000000000        0x0 /Applications/ARM/bin/../lib/gcc/arm-none-eabi/10.3.1/../../../../arm-none-eabi/lib/thumb/v7e-m/nofp/libc_nano.a(lib_a-nano-mallocr.o)
 .bss           0x0000000000000000        0x0 /Applications/ARM/bin/../lib/gcc/arm-none-eabi/10.3.1/../../../../arm-none-eabi/lib/thumb/v7e-m/nofp/libc_nano.a(lib_a-nano-mallocr.o)
 .text          0x0000000000000000        0x0 /Applications/ARM/bin/../lib/gcc/arm-none-eabi/10.3.1/../../../../arm-none-eabi/lib/thumb/v7e-m/nofp/libc_nano.a(lib_a-realloc.o)
 .data          0x0000000000000000        0x0 /Applications/ARM/bin/../lib/gcc/arm-none-eabi/10.3.1/../../../../arm-none-eabi/lib/thumb/v7e-m/nofp/libc_nano.a(lib_a-realloc.o)
 .bss           0x0000000000000000        0x0 /Applications/ARM/bin/../lib/gcc/arm-none-eabi/10.3.1/../../../../arm-none-eabi/lib/thumb/v7e-m/nofp/libc_nano.a(lib_a-realloc.o)
 .text          0x0000000000000000        0x0 /Applications/ARM/bin/../lib/gcc/arm-none-eabi/10.3.1/../../../../arm-none-eabi/lib/thumb/v7e-m/nofp/libc_nano.a(lib_a-sbrkr.o)
 .data          0x0000000000000000        0x0 /Applications/ARM/bin/../lib/gcc/arm-none-eabi/10.3.1/../../../../arm-none-eabi/lib/thumb/v7e-m/nofp/libc_nano.a(lib_a-sbrkr.o)
 .bss           0x0000000000000000        0x0 /Applications/ARM/bin/../lib/gcc/arm-none-eabi/10.3.1/../../../../arm-none-eabi/lib/thumb/v7e-m/nofp/libc_nano.a(lib_a-sbrkr.o)
 .text          0x0000000000000000       0x10 /Applications/ARM/bin/../lib/gcc/arm-none-eabi/10.3.1/../../../../arm-none-eabi/lib/thumb/v7e-m/nofp/libc_nano.a(lib_a-strlen.o)
 .data          0x0000000000000000        0x0 /Applications/ARM/bin/../lib/gcc/arm-none-eabi/10.3.1/../../../../arm-none-eabi/lib/thumb/v7e-m/nofp/libc_nano.a(lib_a-strlen.o)
 .bss           0x0000000000000000        0x0 /Applications/ARM/bin/../lib/gcc/arm-none-eabi/10.3.1/../../../../arm-none-eabi/lib/thumb/v7e-m/nofp/libc_nano.a(lib_a-strlen.o)
 .ARM.attributes
                0x0000000000000000       0x17 /Applications/ARM/bin/../lib/gcc/arm-none-eabi/10.3.1/../../../../arm-none-eabi/lib/thumb/v7e-m/nofp/libc_nano.a(lib_a-strlen.o)
 .text          0x0000000000000000        0x0 /Applications/ARM/bin/../lib/gcc/arm-none-eabi/10.3.1/../../../../arm-none-eabi/lib/thumb/v7e-m/nofp/libc_nano.a(lib_a-vsnprintf.o)
 .data          0x0000000000000000        0x0 /Applications/ARM/bin/../lib/gcc/arm-none-eabi/10.3.1/../../../../arm-none-eabi/lib/thumb/v7e-m/nofp/libc_nano.a(lib_a-vsnprintf.o)
 .bss           0x0000000000000000        0x0 /Applications/ARM/bin/../lib/gcc/arm-none-eabi/10.3.1/../../../../arm-none-eabi/lib/thumb/v7e-m/nofp/libc_nano.a(lib_a-vsnprintf.o)
 .text          0x0000000000000000        0x0 /Applications/ARM/bin/../lib/gcc/arm-none-eabi/10.3.1/../../../../arm-none-eabi/lib/thumb/v7e-m/nofp/libc_nano.a(lib_a-impure.o)
 .data          0x0000000000000000        0x0 /Applications/ARM/bin/../lib/gcc/arm-none-eabi/10.3.1/../../../../arm-none-eabi/lib/thumb/v7e-m/nofp/libc_nano.a(lib_a-impure.o)
 .bss           0x0000000000000000        0x0 /Applications/ARM/bin/../lib/gcc/arm-none-eabi/10.3.1/../../../../arm-none-eabi/lib/thumb/v7e-m/nofp/libc_nano.a(lib_a-impure.o)
 .rodata._global_impure_ptr
                0x0000000000000000        0x4 /Applications/ARM/bin/../lib/gcc/arm-none-eabi/10.3.1/../../../../arm-none-eabi/lib/thumb/v7e-m/nofp/libc_nano.a(lib_a-impure.o)
 .text          0x0000000000000000        0x0 /Applications/ARM/bin/../lib/gcc/arm-none-eabi/10.3.1/../../../../arm-none-eabi/lib/thumb/v7e-m/nofp/libc_nano.a(lib_a-mlock.o)
 .data          0x0000000000000000        0x0 /Applications/ARM/bin/../lib/gcc/arm-none-eabi/10.3.1/../../../../arm-none-eabi/lib/thumb/v7e-m/nofp/libc_nano.a(lib_a-mlock.o)
 .bss           0x0000000000000000        0x0 /Applications/ARM/bin/../lib/gcc/arm-none-eabi/10.3.1/../../../../arm-none-eabi/lib/thumb/v7e-m/nofp/libc_nano.a(lib_a-mlock.o)
 .text          0x0000000000000000        0x0 /Applications/ARM/bin/../lib/gcc/arm-none-eabi/10.3.1/../../../../arm-none-eabi/lib/thumb/v7e-m/nofp/libc_nano.a(lib_a-nano-reallocr.o)
 .data          0x0000000000000000        0x0 /Applications/ARM/bin/../lib/gcc/arm-none-eabi/10.3.1/../../../../arm-none-eabi/lib/thumb/v7e-m/nofp/libc_nano.a(lib_a-nano-reallocr.o)
 .bss           0x0000000000000000        0x0 /Applications/ARM/bin/../lib/gcc/arm-none-eabi/10.3.1/../../../../arm-none-eabi/lib/thumb/v7e-m/nofp/libc_nano.a(lib_a-nano-reallocr.o)
 .text          0x0000000000000000        0x0 /Applications/ARM/bin/../lib/gcc/arm-none-eabi/10.3.1/../../../../arm-none-eabi/lib/thumb/v7e-m/nofp/libc_nano.a(lib_a-nano-svfprintf.o)
 .data          0x0000000000000000        0x0 /Applications/ARM/bin/../lib/gcc/arm-none-eabi/10.3.1/../../../../arm-none-eabi/lib/thumb/v7e-m/nofp/libc_nano.a(lib_a-nano-svfprintf.o)
 .bss           0x0000000000000000        0x0 /Applications/ARM/bin/../lib/gcc/arm-none-eabi/10.3.1/../../../../arm-none-eabi/lib/thumb/v7e-m/nofp/libc_nano.a(lib_a-nano-svfprintf.o)
 .text.__ssprint_r
                0x0000000000000000       0xf6 /Applications/ARM/bin/../lib/gcc/arm-none-eabi/10.3.1/../../../../arm-none-eabi/lib/thumb/v7e-m/nofp/libc_nano.a(lib_a-nano-svfprintf.o)
 .text          0x0000000000000000        0x0 /Applications/ARM/bin/../lib/gcc/arm-none-eabi/10.3.1/../../../../arm-none-eabi/lib/thumb/v7e-m/nofp/libc_nano.a(lib_a-nano-vfprintf_i.o)
 .data          0x0000000000000000        0x0 /Applications/ARM/bin/../lib/gcc/arm-none-eabi/10.3.1/../../../../arm-none-eabi/lib/thumb/v7e-m/nofp/libc_nano.a(lib_a-nano-vfprintf_i.o)
 .bss           0x0000000000000000        0x0 /Applications/ARM/bin/../lib/gcc/arm-none-eabi/10.3.1/../../../../arm-none-eabi/lib/thumb/v7e-m/nofp/libc_nano.a(lib_a-nano-vfprintf_i.o)
 .text          0x0000000000000000        0x0 /Applications/ARM/bin/../lib/gcc/arm-none-eabi/10.3.1/../../../../arm-none-eabi/lib/thumb/v7e-m/nofp/libc_nano.a(lib_a-reent.o)
 .data          0x0000000000000000        0x0 /Applications/ARM/bin/../lib/gcc/arm-none-eabi/10.3.1/../../../../arm-none-eabi/lib/thumb/v7e-m/nofp/libc_nano.a(lib_a-reent.o)
 .bss           0x0000000000000000        0x0 /Applications/ARM/bin/../lib/gcc/arm-none-eabi/10.3.1/../../../../arm-none-eabi/lib/thumb/v7e-m/nofp/libc_nano.a(lib_a-reent.o)
 .text.cleanup_glue
                0x0000000000000000       0x1a /Applications/ARM/bin/../lib/gcc/arm-none-eabi/10.3.1/../../../../arm-none-eabi/lib/thumb/v7e-m/nofp/libc_nano.a(lib_a-reent.o)
 .text._reclaim_reent
                0x0000000000000000       0xb8 /Applications/ARM/bin/../lib/gcc/arm-none-eabi/10.3.1/../../../../arm-none-eabi/lib/thumb/v7e-m/nofp/libc_nano.a(lib_a-reent.o)
 .text          0x0000000000000000        0x0 /Applications/ARM/bin/../lib/gcc/arm-none-eabi/10.3.1/../../../../arm-none-eabi/lib/thumb/v7e-m/nofp/libc_nano.a(lib_a-lock.o)
 .data          0x0000000000000000        0x0 /Applications/ARM/bin/../lib/gcc/arm-none-eabi/10.3.1/../../../../arm-none-eabi/lib/thumb/v7e-m/nofp/libc_nano.a(lib_a-lock.o)
 .bss           0x0000000000000000        0x0 /Applications/ARM/bin/../lib/gcc/arm-none-eabi/10.3.1/../../../../arm-none-eabi/lib/thumb/v7e-m/nofp/libc_nano.a(lib_a-lock.o)
 .text.__retarget_lock_init
                0x0000000000000000        0x2 /Applications/ARM/bin/../lib/gcc/arm-none-eabi/10.3.1/../../../../arm-none-eabi/lib/thumb/v7e-m/nofp/libc_nano.a(lib_a-lock.o)
 .text.__retarget_lock_init_recursive
                0x0000000000000000        0x2 /Applications/ARM/bin/../lib/gcc/arm-none-eabi/10.3.1/../../../../arm-none-eabi/lib/thumb/v7e-m/nofp/libc_nano.a(lib_a-lock.o)
 .text.__retarget_lock_close
                0x0000000000000000        0x2 /Applications/ARM/bin/../lib/gcc/arm-none-eabi/10.3.1/../../../../arm-none-eabi/lib/thumb/v7e-m/nofp/libc_nano.a(lib_a-lock.o)
 .text.__retarget_lock_close_recursive
                0x0000000000000000        0x2 /Applications/ARM/bin/../lib/gcc/arm-none-eabi/10.3.1/../../../../arm-none-eabi/lib/thumb/v7e-m/nofp/libc_nano.a(lib_a-lock.o)
 .text.__retarget_lock_acquire
                0x0000000000000000        0x2 /Applications/ARM/bin/../lib/gcc/arm-none-eabi/10.3.1/../../../../arm-none-eabi/lib/thumb/v7e-m/nofp/libc_nano.a(lib_a-lock.o)
 .text.__retarget_lock_try_acquire
                0x0000000000000000        0x4 /Applications/ARM/bin/../lib/gcc/arm-none-eabi/10.3.1/../../../../arm-none-eabi/lib/thumb/v7e-m/nofp/libc_nano.a(lib_a-lock.o)
 .text.__retarget_lock_try_acquire_recursive
                0x0000000000000000        0x4 /Applications/ARM/bin/../lib/gcc/arm-none-eabi/10.3.1/../../../../arm-none-eabi/lib/thumb/v7e-m/nofp/libc_nano.a(lib_a-lock.o)
 .text.__retarget_lock_release
                0x0000000000000000        0x2 /Applications/ARM/bin/../lib/gcc/arm-none-eabi/10.3.1/../../../../arm-none-eabi/lib/thumb/v7e-m/nofp/libc_nano.a(lib_a-lock.o)
 .bss.__lock___arc4random_mutex
                0x0000000000000000        0x1 /Applications/ARM/bin/../lib/gcc/arm-none-eabi/10.3.1/../../../../arm-none-eabi/lib/thumb/v7e-m/nofp/libc_nano.a(lib_a-lock.o)
 .bss.__lock___at_quick_exit_mutex
                0x0000000000000000        0x1 /Applications/ARM/bin/../lib/gcc/arm-none-eabi/10.3.1/../../../../arm-none-eabi/lib/thumb/v7e-m/nofp/libc_nano.a(lib_a-lock.o)
 .bss.__lock___atexit_recursive_mutex
                0x0000000000000000        0x1 /Applications/ARM/bin/../lib/gcc/arm-none-eabi/10.3.1/../../../../arm-none-eabi/lib/thumb/v7e-m/nofp/libc_nano.a(lib_a-lock.o)
 .bss.__lock___dd_hash_mutex
                0x0000000000000000        0x1 /Applications/ARM/bin/../lib/gcc/arm-none-eabi/10.3.1/../../../../arm-none-eabi/lib/thumb/v7e-m/nofp/libc_nano.a(lib_a-lock.o)
 .bss.__lock___env_recursive_mutex
                0x0000000000000000        0x1 /Applications/ARM/bin/../lib/gcc/arm-none-eabi/10.3.1/../../../../arm-none-eabi/lib/thumb/v7e-m/nofp/libc_nano.a(lib_a-lock.o)
 .bss.__lock___sfp_recursive_mutex
                0x0000000000000000        0x1 /Applications/ARM/bin/../lib/gcc/arm-none-eabi/10.3.1/../../../../arm-none-eabi/lib/thumb/v7e-m/nofp/libc_nano.a(lib_a-lock.o)
 .bss.__lock___sinit_recursive_mutex
                0x0000000000000000        0x1 /Applications/ARM/bin/../lib/gcc/arm-none-eabi/10.3.1/../../../../arm-none-eabi/lib/thumb/v7e-m/nofp/libc_nano.a(lib_a-lock.o)
 .bss.__lock___tz_mutex
                0x0000000000000000        0x1 /Applications/ARM/bin/../lib/gcc/arm-none-eabi/10.3.1/../../../../arm-none-eabi/lib/thumb/v7e-m/nofp/libc_nano.a(lib_a-lock.o)
 .data          0x0000000000000000        0x0 /Applications/ARM/bin/../lib/gcc/arm-none-eabi/10.3.1/../../../../arm-none-eabi/lib/thumb/v7e-m/nofp/libc_nano.a(lib_a-memchr.o)
 .bss           0x0000000000000000        0x0 /Applications/ARM/bin/../lib/gcc/arm-none-eabi/10.3.1/../../../../arm-none-eabi/lib/thumb/v7e-m/nofp/libc_nano.a(lib_a-memchr.o)
 .text          0x0000000000000000        0x0 /Applications/ARM/bin/../lib/gcc/arm-none-eabi/10.3.1/../../../../arm-none-eabi/lib/thumb/v7e-m/nofp/libc_nano.a(lib_a-nano-msizer.o)
 .data          0x0000000000000000        0x0 /Applications/ARM/bin/../lib/gcc/arm-none-eabi/10.3.1/../../../../arm-none-eabi/lib/thumb/v7e-m/nofp/libc_nano.a(lib_a-nano-msizer.o)
 .bss           0x0000000000000000        0x0 /Applications/ARM/bin/../lib/gcc/arm-none-eabi/10.3.1/../../../../arm-none-eabi/lib/thumb/v7e-m/nofp/libc_nano.a(lib_a-nano-msizer.o)
 .data          0x0000000000000000        0x0 /Applications/ARM/bin/../lib/gcc/arm-none-eabi/10.3.1/thumb/v7e-m/nofp/libgcc.a(_aeabi_uldivmod.o)
 .bss           0x0000000000000000        0x0 /Applications/ARM/bin/../lib/gcc/arm-none-eabi/10.3.1/thumb/v7e-m/nofp/libgcc.a(_aeabi_uldivmod.o)
 .data          0x0000000000000000        0x0 /Applications/ARM/bin/../lib/gcc/arm-none-eabi/10.3.1/thumb/v7e-m/nofp/libgcc.a(_udivmoddi4.o)
 .bss           0x0000000000000000        0x0 /Applications/ARM/bin/../lib/gcc/arm-none-eabi/10.3.1/thumb/v7e-m/nofp/libgcc.a(_udivmoddi4.o)
 .ARM.extab     0x0000000000000000        0x0 /Applications/ARM/bin/../lib/gcc/arm-none-eabi/10.3.1/thumb/v7e-m/nofp/libgcc.a(_udivmoddi4.o)
 .data          0x0000000000000000        0x0 /Applications/ARM/bin/../lib/gcc/arm-none-eabi/10.3.1/thumb/v7e-m/nofp/libgcc.a(_dvmd_tls.o)
 .bss           0x0000000000000000        0x0 /Applications/ARM/bin/../lib/gcc/arm-none-eabi/10.3.1/thumb/v7e-m/nofp/libgcc.a(_dvmd_tls.o)

Memory Configuration

Name             Origin             Length             Attributes
SRAM             0x0000000020000000 0x0000000000040000 xrw
*default*        0x0000000000000000 0xffffffffffffffff

Linker script and memory map

                0x0000000000004000                BOOTLOADER_SIZE = 0x4000

.bootloader     0x0000000020000000     0x4000
                0x0000000020000000                _heap2 = .
                0x0000000020004000                . = (. + BOOTLOADER_SIZE)
 *fill*         0x0000000020000000     0x4000 
                0x0000000020004000                . = ALIGN (0x8)
                0x0000000020004000                _eheap2 = .

.text           0x0000000020004000     0xbb08
                0x0000000020004000                _text = .
 *(.intvecs)
 .intvecs       0x0000000020004000      0x400 obj/Unicast/Debug/startup_gcc.o
                0x0000000020004000                g_pfnVectors
 *(.text*)
 .text.AudioCodecReset
                0x0000000020004400       0x2a obj/Unicast/Debug/audiocodec.o
                0x0000000020004400                AudioCodecReset
 .text.AudioCodecConfig
                0x000000002000442a      0x33a obj/Unicast/Debug/audiocodec.o
                0x000000002000442a                AudioCodecConfig
 .text.AudioCodecSpeakerVolCtrl
                0x0000000020004764       0x84 obj/Unicast/Debug/audiocodec.o
                0x0000000020004764                AudioCodecSpeakerVolCtrl
 .text.AudioCodecMicVolCtrl
                0x00000000200047e8       0x88 obj/Unicast/Debug/audiocodec.o
                0x00000000200047e8                AudioCodecMicVolCtrl
 .text.AudioCodecPageSelect
                0x0000000020004870       0x1e obj/Unicast/Debug/audiocodec.o
 *fill*         0x000000002000488e        0x2 
 .text.AudioCodecRegWrite
                0x0000000020004890       0xa0 obj/Unicast/Debug/audiocodec.o
 .text.CreateCircularBuffer
                0x0000000020004930       0x56 obj/Unicast/Debug/circ_buff.o
                0x0000000020004930                CreateCircularBuffer
 .text.GetReadPtr
                0x0000000020004986       0x16 obj/Unicast/Debug/circ_buff.o
                0x0000000020004986                GetReadPtr
 .text.GetWritePtr
                0x000000002000499c       0x16 obj/Unicast/Debug/circ_buff.o
                0x000000002000499c                GetWritePtr
 .text.FillBuffer
                0x00000000200049b2       0x84 obj/Unicast/Debug/circ_buff.o
                0x00000000200049b2                FillBuffer
 .text.UpdateReadPtr
                0x0000000020004a36       0x5c obj/Unicast/Debug/circ_buff.o
                0x0000000020004a36                UpdateReadPtr
 .text.UpdateWritePtr
                0x0000000020004a92       0x5c obj/Unicast/Debug/circ_buff.o
                0x0000000020004a92                UpdateWritePtr
 .text.GetBufferSize
                0x0000000020004aee       0x46 obj/Unicast/Debug/circ_buff.o
                0x0000000020004aee                GetBufferSize
 .text.IsBufferEmpty
                0x0000000020004b34       0x24 obj/Unicast/Debug/circ_buff.o
                0x0000000020004b34                IsBufferEmpty
 .text.IsBufferSizeFilled
                0x0000000020004b58       0x28 obj/Unicast/Debug/circ_buff.o
                0x0000000020004b58                IsBufferSizeFilled
 .text.IsBufferVacant
                0x0000000020004b80       0x28 obj/Unicast/Debug/circ_buff.o
                0x0000000020004b80                IsBufferVacant
 .text.MicroPhoneControl
                0x0000000020004ba8       0xd4 obj/Unicast/Debug/control.o
                0x0000000020004ba8                MicroPhoneControl
 .text.SpeakerControl
                0x0000000020004c7c      0x154 obj/Unicast/Debug/control.o
                0x0000000020004c7c                SpeakerControl
 .text.MICStartStopControl
                0x0000000020004dd0       0x48 obj/Unicast/Debug/control.o
 .text.SpeakerStartStopControl
                0x0000000020004e18       0x48 obj/Unicast/Debug/control.o
 .text.MICButtonHandler
                0x0000000020004e60       0x50 obj/Unicast/Debug/control.o
 .text.SpeakerButtonHandler
                0x0000000020004eb0       0x50 obj/Unicast/Debug/control.o
 .text.InitControl
                0x0000000020004f00       0xc8 obj/Unicast/Debug/control.o
                0x0000000020004f00                InitControl
 .text.AudioControlTask
                0x0000000020004fc8       0x34 obj/Unicast/Debug/control.o
                0x0000000020004fc8                AudioControlTask
 .text.ControlTaskCreate
                0x0000000020004ffc       0xb8 obj/Unicast/Debug/control.o
                0x0000000020004ffc                ControlTaskCreate
 .text.vApplicationIdleHook
                0x00000000200050b4        0xc obj/Unicast/Debug/main.o
                0x00000000200050b4                vApplicationIdleHook
 .text.vApplicationStackOverflowHook
                0x00000000200050c0        0xc obj/Unicast/Debug/main.o
                0x00000000200050c0                vApplicationStackOverflowHook
 .text.vApplicationMallocFailedHook
                0x00000000200050cc        0x6 obj/Unicast/Debug/main.o
                0x00000000200050cc                vApplicationMallocFailedHook
 .text.BoardInit
                0x00000000200050d2       0x16 obj/Unicast/Debug/main.o
                0x00000000200050d2                BoardInit
 .text.main     0x00000000200050e8      0x2a8 obj/Unicast/Debug/main.o
                0x00000000200050e8                main
 .text.Microphone
                0x0000000020005390       0xec obj/Unicast/Debug/microphone.o
                0x0000000020005390                Microphone
 .text.mDNS_Task
                0x000000002000547c       0xc4 obj/Unicast/Debug/network.o
                0x000000002000547c                mDNS_Task
 .text.SimpleLinkWlanEventHandler
                0x0000000020005540      0x170 obj/Unicast/Debug/network.o
                0x0000000020005540                SimpleLinkWlanEventHandler
 .text.SimpleLinkNetAppEventHandler
                0x00000000200056b0       0xb8 obj/Unicast/Debug/network.o
                0x00000000200056b0                SimpleLinkNetAppEventHandler
 .text.SimpleLinkHttpServerCallback
                0x0000000020005768       0x14 obj/Unicast/Debug/network.o
                0x0000000020005768                SimpleLinkHttpServerCallback
 .text.SimpleLinkGeneralEventHandler
                0x000000002000577c       0x3c obj/Unicast/Debug/network.o
                0x000000002000577c                SimpleLinkGeneralEventHandler
 .text.SimpleLinkSockEventHandler
                0x00000000200057b8       0x32 obj/Unicast/Debug/network.o
                0x00000000200057b8                SimpleLinkSockEventHandler
 *fill*         0x00000000200057ea        0x2 
 .text.InitializeAppVariables
                0x00000000200057ec       0x38 obj/Unicast/Debug/network.o
 .text.ConfigureMode
                0x0000000020005824       0x64 obj/Unicast/Debug/network.o
 .text.ConnectToNetwork
                0x0000000020005888      0x128 obj/Unicast/Debug/network.o
                0x0000000020005888                ConnectToNetwork
 .text.CreateUdpServer
                0x00000000200059b0       0xc0 obj/Unicast/Debug/network.o
                0x00000000200059b0                CreateUdpServer
 .text.Network  0x0000000020005a70       0x54 obj/Unicast/Debug/network.o
                0x0000000020005a70                Network
 .text.DMAPingPongCompleteAppCB_opt
                0x0000000020005ac4      0x214 obj/Unicast/Debug/pcm_handler.o
                0x0000000020005ac4                DMAPingPongCompleteAppCB_opt
 .text.SetupPingPongDMATransferTx
                0x0000000020005cd8       0x8c obj/Unicast/Debug/pcm_handler.o
                0x0000000020005cd8                SetupPingPongDMATransferTx
 .text.SetupPingPongDMATransferRx
                0x0000000020005d64       0x8c obj/Unicast/Debug/pcm_handler.o
                0x0000000020005d64                SetupPingPongDMATransferRx
 .text.PinMuxConfig
                0x0000000020005df0       0xa0 obj/Unicast/Debug/pinmux.o
                0x0000000020005df0                PinMuxConfig
 .text.SmartConfigConnect
                0x0000000020005e90       0x9c obj/Unicast/Debug/smartconfig.o
                0x0000000020005e90                SmartConfigConnect
 .text.Speaker  0x0000000020005f2c      0x128 obj/Unicast/Debug/speaker.o
                0x0000000020005f2c                Speaker
 .text.InitTerm
                0x0000000020006054       0x2c obj/Unicast/Debug/uart_if.o
                0x0000000020006054                InitTerm
 .text.Message  0x0000000020006080       0x34 obj/Unicast/Debug/uart_if.o
                0x0000000020006080                Message
 .text.Report   0x00000000200060b4       0x98 obj/Unicast/Debug/uart_if.o
                0x00000000200060b4                Report
 .text.I2CTransact
                0x000000002000614c       0xbc obj/Unicast/Debug/i2c_if.o
 .text.I2C_IF_Write
                0x0000000020006208       0xc0 obj/Unicast/Debug/i2c_if.o
                0x0000000020006208                I2C_IF_Write
 .text.I2C_IF_Read
                0x00000000200062c8       0xc4 obj/Unicast/Debug/i2c_if.o
                0x00000000200062c8                I2C_IF_Read
 .text.I2C_IF_ReadFrom
                0x000000002000638c       0x4e obj/Unicast/Debug/i2c_if.o
                0x000000002000638c                I2C_IF_ReadFrom
 *fill*         0x00000000200063da        0x2 
 .text.I2C_IF_Open
                0x00000000200063dc       0x70 obj/Unicast/Debug/i2c_if.o
                0x00000000200063dc                I2C_IF_Open
 .text.AudioInit
                0x000000002000644c       0x10 obj/Unicast/Debug/i2s_if.o
                0x000000002000644c                AudioInit
 .text.AudioSetupDMAMode
                0x000000002000645c       0x50 obj/Unicast/Debug/i2s_if.o
                0x000000002000645c                AudioSetupDMAMode
 .text.AudioCaptureRendererConfigure
                0x00000000200064ac       0x8c obj/Unicast/Debug/i2s_if.o
                0x00000000200064ac                AudioCaptureRendererConfigure
 .text.Audio_Start
                0x0000000020006538       0x38 obj/Unicast/Debug/i2s_if.o
                0x0000000020006538                Audio_Start
 .text.DmaSwIntHandler
                0x0000000020006570       0x24 obj/Unicast/Debug/udma_if.o
                0x0000000020006570                DmaSwIntHandler
 .text.DmaErrorIntHandler
                0x0000000020006594       0x14 obj/Unicast/Debug/udma_if.o
                0x0000000020006594                DmaErrorIntHandler
 .text.UDMAInit
                0x00000000200065a8       0x74 obj/Unicast/Debug/udma_if.o
                0x00000000200065a8                UDMAInit
 .text.UDMAChannelSelect
                0x000000002000661c       0x3c obj/Unicast/Debug/udma_if.o
                0x000000002000661c                UDMAChannelSelect
 .text.UDMASetupTransfer
                0x0000000020006658       0x4a obj/Unicast/Debug/udma_if.o
                0x0000000020006658                UDMASetupTransfer
 *fill*         0x00000000200066a2        0x2 
 .text.GPIO_IF_LedConfigure
                0x00000000200066a4       0x68 obj/Unicast/Debug/gpio_if.o
                0x00000000200066a4                GPIO_IF_LedConfigure
 .text.GPIO_IF_LedOn
                0x000000002000670c       0xd4 obj/Unicast/Debug/gpio_if.o
                0x000000002000670c                GPIO_IF_LedOn
 .text.GPIO_IF_LedOff
                0x00000000200067e0       0xd4 obj/Unicast/Debug/gpio_if.o
                0x00000000200067e0                GPIO_IF_LedOff
 .text.GPIO_IF_GetPortNPin
                0x00000000200068b4       0x48 obj/Unicast/Debug/gpio_if.o
                0x00000000200068b4                GPIO_IF_GetPortNPin
 .text.GPIO_IF_Set
                0x00000000200068fc       0x3a obj/Unicast/Debug/gpio_if.o
                0x00000000200068fc                GPIO_IF_Set
 *fill*         0x0000000020006936        0x2 
 .text.ResetISR
                0x0000000020006938       0x5c obj/Unicast/Debug/startup_gcc.o
                0x0000000020006938                ResetISR
 .text.NmiSR    0x0000000020006994        0x6 obj/Unicast/Debug/startup_gcc.o
 .text.FaultISR
                0x000000002000699a        0x6 obj/Unicast/Debug/startup_gcc.o
 .text.BusFaultHandler
                0x00000000200069a0        0x6 obj/Unicast/Debug/startup_gcc.o
 .text.IntDefaultHandler
                0x00000000200069a6        0x6 obj/Unicast/Debug/startup_gcc.o
 .text._sbrk    0x00000000200069ac       0x54 obj/Unicast/Debug/startup_gcc.o
                0x00000000200069ac                _sbrk
 .text._sl_GetStartResponseConvert
                0x0000000020006a00       0x20 ../../../simplelink/gcc/lib/os/Debug/libsimplelink.a(device.o)
 .text.sl_Start
                0x0000000020006a20      0x10c ../../../simplelink/gcc/lib/os/Debug/libsimplelink.a(device.o)
                0x0000000020006a20                sl_Start
 .text._sl_HandleAsync_InitComplete
                0x0000000020006b2c       0xb4 ../../../simplelink/gcc/lib/os/Debug/libsimplelink.a(device.o)
                0x0000000020006b2c                _sl_HandleAsync_InitComplete
 .text._sl_HandleAsync_Stop
                0x0000000020006be0       0x64 ../../../simplelink/gcc/lib/os/Debug/libsimplelink.a(device.o)
                0x0000000020006be0                _sl_HandleAsync_Stop
 .text.sl_Stop  0x0000000020006c44       0xf4 ../../../simplelink/gcc/lib/os/Debug/libsimplelink.a(device.o)
                0x0000000020006c44                sl_Stop
 .text._SlDrvDeviceEventHandler
                0x0000000020006d38       0xaa ../../../simplelink/gcc/lib/os/Debug/libsimplelink.a(device.o)
                0x0000000020006d38                _SlDrvDeviceEventHandler
 *fill*         0x0000000020006de2        0x2 
 .text._SlDrvHandleWlanEvents
                0x0000000020006de4       0x40 ../../../simplelink/gcc/lib/os/Debug/libsimplelink.a(driver.o)
                0x0000000020006de4                _SlDrvHandleWlanEvents
 .text._SlDrvHandleNetAppEvents
                0x0000000020006e24       0x3c ../../../simplelink/gcc/lib/os/Debug/libsimplelink.a(driver.o)
                0x0000000020006e24                _SlDrvHandleNetAppEvents
 .text._SlDrvHandleHttpServerEvents
                0x0000000020006e60       0x40 ../../../simplelink/gcc/lib/os/Debug/libsimplelink.a(driver.o)
                0x0000000020006e60                _SlDrvHandleHttpServerEvents
 .text._SlDrvProtectAsyncRespSetting
                0x0000000020006ea0       0x54 ../../../simplelink/gcc/lib/os/Debug/libsimplelink.a(driver.o)
                0x0000000020006ea0                _SlDrvProtectAsyncRespSetting
 .text._SlDrvDriverCBInit
                0x0000000020006ef4      0x1b4 ../../../simplelink/gcc/lib/os/Debug/libsimplelink.a(driver.o)
                0x0000000020006ef4                _SlDrvDriverCBInit
 .text._SlDrvDriverCBDeinit
                0x00000000200070a8      0x140 ../../../simplelink/gcc/lib/os/Debug/libsimplelink.a(driver.o)
                0x00000000200070a8                _SlDrvDriverCBDeinit
 .text._SlDrvRxIrqHandler
                0x00000000200071e8       0x64 ../../../simplelink/gcc/lib/os/Debug/libsimplelink.a(driver.o)
                0x00000000200071e8                _SlDrvRxIrqHandler
 .text._SlDrvCmdOp
                0x000000002000724c       0xcc ../../../simplelink/gcc/lib/os/Debug/libsimplelink.a(driver.o)
                0x000000002000724c                _SlDrvCmdOp
 .text._SlDrvDataReadOp
                0x0000000020007318      0x210 ../../../simplelink/gcc/lib/os/Debug/libsimplelink.a(driver.o)
                0x0000000020007318                _SlDrvDataReadOp
 .text._SlDrvDataWriteOp
                0x0000000020007528      0x170 ../../../simplelink/gcc/lib/os/Debug/libsimplelink.a(driver.o)
                0x0000000020007528                _SlDrvDataWriteOp
 .text._SlDrvMsgWrite
                0x0000000020007698      0x1d8 ../../../simplelink/gcc/lib/os/Debug/libsimplelink.a(driver.o)
 .text._SlDrvMsgRead
                0x0000000020007870      0x5e0 ../../../simplelink/gcc/lib/os/Debug/libsimplelink.a(driver.o)
 .text._SlAsyncEventGenericHandler
                0x0000000020007e50       0xd8 ../../../simplelink/gcc/lib/os/Debug/libsimplelink.a(driver.o)
 .text._SlDrvMsgReadCmdCtx
                0x0000000020007f28      0x15c ../../../simplelink/gcc/lib/os/Debug/libsimplelink.a(driver.o)
 .text._SlDrvMsgReadSpawnCtx
                0x0000000020008084       0xfc ../../../simplelink/gcc/lib/os/Debug/libsimplelink.a(driver.o)
                0x0000000020008084                _SlDrvMsgReadSpawnCtx
 .text._SlDrvClassifyRxMsg
                0x0000000020008180       0xd0 ../../../simplelink/gcc/lib/os/Debug/libsimplelink.a(driver.o)
 .text._SlDrvRxHdrRead
                0x0000000020008250      0x2b0 ../../../simplelink/gcc/lib/os/Debug/libsimplelink.a(driver.o)
 .text._SlDrvCmdSend
                0x0000000020008500       0x74 ../../../simplelink/gcc/lib/os/Debug/libsimplelink.a(driver.o)
                0x0000000020008500                _SlDrvCmdSend
 .text._SlDrvWaitForPoolObj
                0x0000000020008574      0x1a8 ../../../simplelink/gcc/lib/os/Debug/libsimplelink.a(driver.o)
                0x0000000020008574                _SlDrvWaitForPoolObj
 .text._SlDrvReleasePoolObj
                0x000000002000871c      0x204 ../../../simplelink/gcc/lib/os/Debug/libsimplelink.a(driver.o)
                0x000000002000871c                _SlDrvReleasePoolObj
 .text._SlRemoveFromList
                0x0000000020008920       0xd0 ../../../simplelink/gcc/lib/os/Debug/libsimplelink.a(driver.o)
 .text._SlFindAndSetActiveObj
                0x00000000200089f0      0x168 ../../../simplelink/gcc/lib/os/Debug/libsimplelink.a(driver.o)
 .text._SlDrvDispatchHttpServerEvents
                0x0000000020008b58       0x1a ../../../simplelink/gcc/lib/os/Debug/libsimplelink.a(driver.o)
                0x0000000020008b58                _SlDrvDispatchHttpServerEvents
 .text._SlDrvSyncObjSignal
                0x0000000020008b72       0x2a ../../../simplelink/gcc/lib/os/Debug/libsimplelink.a(driver.o)
                0x0000000020008b72                _SlDrvSyncObjSignal
 .text._SlDrvObjLockWaitForever
                0x0000000020008b9c       0x2e ../../../simplelink/gcc/lib/os/Debug/libsimplelink.a(driver.o)
                0x0000000020008b9c                _SlDrvObjLockWaitForever
 *fill*         0x0000000020008bca        0x2 
 .text._SlDrvProtectionObjLockWaitForever
                0x0000000020008bcc       0x38 ../../../simplelink/gcc/lib/os/Debug/libsimplelink.a(driver.o)
                0x0000000020008bcc                _SlDrvProtectionObjLockWaitForever
 .text._SlDrvObjUnLock
                0x0000000020008c04       0x2a ../../../simplelink/gcc/lib/os/Debug/libsimplelink.a(driver.o)
                0x0000000020008c04                _SlDrvObjUnLock
 *fill*         0x0000000020008c2e        0x2 
 .text._SlDrvProtectionObjUnLock
                0x0000000020008c30       0x34 ../../../simplelink/gcc/lib/os/Debug/libsimplelink.a(driver.o)
                0x0000000020008c30                _SlDrvProtectionObjUnLock
 .text._SlDrvObjGlobalLockWaitForever
                0x0000000020008c64       0x34 ../../../simplelink/gcc/lib/os/Debug/libsimplelink.a(driver.o)
 .text._SlDrvGlobalObjUnLock
                0x0000000020008c98       0x34 ../../../simplelink/gcc/lib/os/Debug/libsimplelink.a(driver.o)
                0x0000000020008c98                _SlDrvGlobalObjUnLock
 .text._SlDrvMemZero
                0x0000000020008ccc       0x20 ../../../simplelink/gcc/lib/os/Debug/libsimplelink.a(driver.o)
                0x0000000020008ccc                _SlDrvMemZero
 .text._SlDrvResetCmdExt
                0x0000000020008cec       0x18 ../../../simplelink/gcc/lib/os/Debug/libsimplelink.a(driver.o)
                0x0000000020008cec                _SlDrvResetCmdExt
 .text._SlDrvSyncObjWaitForever
                0x0000000020008d04       0x30 ../../../simplelink/gcc/lib/os/Debug/libsimplelink.a(driver.o)
                0x0000000020008d04                _SlDrvSyncObjWaitForever
 .text._SlDrvSyncObjWaitTimeout
                0x0000000020008d34       0x50 ../../../simplelink/gcc/lib/os/Debug/libsimplelink.a(driver.o)
                0x0000000020008d34                _SlDrvSyncObjWaitTimeout
 .text._SlDriverHandleError
                0x0000000020008d84       0xa0 ../../../simplelink/gcc/lib/os/Debug/libsimplelink.a(driver.o)
                0x0000000020008d84                _SlDriverHandleError
 .text._SlDrvStartMeasureTimeout
                0x0000000020008e24       0x30 ../../../simplelink/gcc/lib/os/Debug/libsimplelink.a(driver.o)
                0x0000000020008e24                _SlDrvStartMeasureTimeout
 .text._SlDrvIsTimeoutExpired
                0x0000000020008e54       0xa8 ../../../simplelink/gcc/lib/os/Debug/libsimplelink.a(driver.o)
                0x0000000020008e54                _SlDrvIsTimeoutExpired
 .text.sl_NetAppMDNSRegisterUnregisterService
                0x0000000020008efc      0x184 ../../../simplelink/gcc/lib/os/Debug/libsimplelink.a(netapp.o)
                0x0000000020008efc                sl_NetAppMDNSRegisterUnregisterService
 .text.sl_NetAppMDNSRegisterService
                0x0000000020009080       0x6c ../../../simplelink/gcc/lib/os/Debug/libsimplelink.a(netapp.o)
                0x0000000020009080                sl_NetAppMDNSRegisterService
 .text.sl_NetAppMDNSUnRegisterService
                0x00000000200090ec       0x64 ../../../simplelink/gcc/lib/os/Debug/libsimplelink.a(netapp.o)
                0x00000000200090ec                sl_NetAppMDNSUnRegisterService
 .text.sl_NetAppDnsGetHostByService
                0x0000000020009150      0x148 ../../../simplelink/gcc/lib/os/Debug/libsimplelink.a(netapp.o)
                0x0000000020009150                sl_NetAppDnsGetHostByService
 .text._sl_HandleAsync_DnsGetHostByService
                0x0000000020009298       0xd0 ../../../simplelink/gcc/lib/os/Debug/libsimplelink.a(netapp.o)
                0x0000000020009298                _sl_HandleAsync_DnsGetHostByService
 .text._sl_HandleAsync_DnsGetHostByName
                0x0000000020009368       0xb4 ../../../simplelink/gcc/lib/os/Debug/libsimplelink.a(netapp.o)
                0x0000000020009368                _sl_HandleAsync_DnsGetHostByName
 .text.CopyPingResultsToReport
                0x000000002000941c       0x44 ../../../simplelink/gcc/lib/os/Debug/libsimplelink.a(netapp.o)
 .text._sl_HandleAsync_PingResponse
                0x0000000020009460       0xb0 ../../../simplelink/gcc/lib/os/Debug/libsimplelink.a(netapp.o)
                0x0000000020009460                _sl_HandleAsync_PingResponse
 .text._sl_NetAppSendTokenValue
                0x0000000020009510       0x7c ../../../simplelink/gcc/lib/os/Debug/libsimplelink.a(netapp.o)
                0x0000000020009510                _sl_NetAppSendTokenValue
 .text._SlDrvNetAppEventHandler
                0x000000002000958c      0x188 ../../../simplelink/gcc/lib/os/Debug/libsimplelink.a(netapp.o)
                0x000000002000958c                _SlDrvNetAppEventHandler
 .text._sl_BuildAddress
                0x0000000020009714       0x56 ../../../simplelink/gcc/lib/os/Debug/libsimplelink.a(socket.o)
 *fill*         0x000000002000976a        0x2 
 .text._sl_TruncatePayloadByProtocol
                0x000000002000976c       0x40 ../../../simplelink/gcc/lib/os/Debug/libsimplelink.a(socket.o)
 .text.sl_Socket
                0x00000000200097ac       0x8c ../../../simplelink/gcc/lib/os/Debug/libsimplelink.a(socket.o)
                0x00000000200097ac                sl_Socket
 .text.sl_Bind  0x0000000020009838       0xb8 ../../../simplelink/gcc/lib/os/Debug/libsimplelink.a(socket.o)
                0x0000000020009838                sl_Bind
 .text.sl_SendTo
                0x00000000200098f0      0x14c ../../../simplelink/gcc/lib/os/Debug/libsimplelink.a(socket.o)
                0x00000000200098f0                sl_SendTo
 .text.sl_RecvFrom
                0x0000000020009a3c      0x144 ../../../simplelink/gcc/lib/os/Debug/libsimplelink.a(socket.o)
                0x0000000020009a3c                sl_RecvFrom
 .text._sl_HandleAsync_Connect
                0x0000000020009b80       0x9c ../../../simplelink/gcc/lib/os/Debug/libsimplelink.a(socket.o)
                0x0000000020009b80                _sl_HandleAsync_Connect
 .text.sl_Htonl
                0x0000000020009c1c       0x54 ../../../simplelink/gcc/lib/os/Debug/libsimplelink.a(socket.o)
                0x0000000020009c1c                sl_Htonl
 .text.sl_Htons
                0x0000000020009c70       0x46 ../../../simplelink/gcc/lib/os/Debug/libsimplelink.a(socket.o)
                0x0000000020009c70                sl_Htons
 *fill*         0x0000000020009cb6        0x2 
 .text._sl_HandleAsync_Accept
                0x0000000020009cb8       0x7c ../../../simplelink/gcc/lib/os/Debug/libsimplelink.a(socket.o)
                0x0000000020009cb8                _sl_HandleAsync_Accept
 .text._sl_HandleAsync_Select
                0x0000000020009d34       0x6c ../../../simplelink/gcc/lib/os/Debug/libsimplelink.a(socket.o)
                0x0000000020009d34                _sl_HandleAsync_Select
 .text.sl_Select
                0x0000000020009da0      0x184 ../../../simplelink/gcc/lib/os/Debug/libsimplelink.a(socket.o)
                0x0000000020009da0                sl_Select
 .text.SL_FD_SET
                0x0000000020009f24       0x2c ../../../simplelink/gcc/lib/os/Debug/libsimplelink.a(socket.o)
                0x0000000020009f24                SL_FD_SET
 .text.SL_FD_ISSET
                0x0000000020009f50       0x32 ../../../simplelink/gcc/lib/os/Debug/libsimplelink.a(socket.o)
                0x0000000020009f50                SL_FD_ISSET
 .text.SL_FD_ZERO
                0x0000000020009f82       0x18 ../../../simplelink/gcc/lib/os/Debug/libsimplelink.a(socket.o)
                0x0000000020009f82                SL_FD_ZERO
 *fill*         0x0000000020009f9a        0x2 
 .text.sl_WlanPolicySet
                0x0000000020009f9c       0x94 ../../../simplelink/gcc/lib/os/Debug/libsimplelink.a(wlan.o)
                0x0000000020009f9c                sl_WlanPolicySet
 .text.sl_WlanProfileDel
                0x000000002000a030       0x6c ../../../simplelink/gcc/lib/os/Debug/libsimplelink.a(wlan.o)
                0x000000002000a030                sl_WlanProfileDel
 .text.sl_WlanSmartConfigStart
                0x000000002000a09c       0xdc ../../../simplelink/gcc/lib/os/Debug/libsimplelink.a(wlan.o)
                0x000000002000a09c                sl_WlanSmartConfigStart
 .text.sl_WlanSetMode
                0x000000002000a178       0x68 ../../../simplelink/gcc/lib/os/Debug/libsimplelink.a(wlan.o)
                0x000000002000a178                sl_WlanSetMode
 .text.spi_Read_CPU
                0x000000002000a1e0       0x88 ../../../simplelink/gcc/lib/os/Debug/libsimplelink.a(cc_pal.o)
 .text.spi_Write_CPU
                0x000000002000a268       0x84 ../../../simplelink/gcc/lib/os/Debug/libsimplelink.a(cc_pal.o)
 .text.DmaSpiSwIntHandler
                0x000000002000a2ec       0x30 ../../../simplelink/gcc/lib/os/Debug/libsimplelink.a(cc_pal.o)
                0x000000002000a2ec                DmaSpiSwIntHandler
 .text.SetupDMAReceive
                0x000000002000a31c       0x94 ../../../simplelink/gcc/lib/os/Debug/libsimplelink.a(cc_pal.o)
 .text.SetupDMASend
                0x000000002000a3b0       0x94 ../../../simplelink/gcc/lib/os/Debug/libsimplelink.a(cc_pal.o)
 .text.spi_Open
                0x000000002000a444      0x154 ../../../simplelink/gcc/lib/os/Debug/libsimplelink.a(cc_pal.o)
                0x000000002000a444                spi_Open
 .text.spi_Close
                0x000000002000a598       0x84 ../../../simplelink/gcc/lib/os/Debug/libsimplelink.a(cc_pal.o)
                0x000000002000a598                spi_Close
 .text.spi_Read
                0x000000002000a61c       0xec ../../../simplelink/gcc/lib/os/Debug/libsimplelink.a(cc_pal.o)
                0x000000002000a61c                spi_Read
 .text.spi_Write
                0x000000002000a708       0x9c ../../../simplelink/gcc/lib/os/Debug/libsimplelink.a(cc_pal.o)
                0x000000002000a708                spi_Write
 .text.NwpRegisterInterruptHandler
                0x000000002000a7a4       0x32 ../../../simplelink/gcc/lib/os/Debug/libsimplelink.a(cc_pal.o)
                0x000000002000a7a4                NwpRegisterInterruptHandler
 *fill*         0x000000002000a7d6        0x2 
 .text.NwpMaskInterrupt
                0x000000002000a7d8       0x18 ../../../simplelink/gcc/lib/os/Debug/libsimplelink.a(cc_pal.o)
                0x000000002000a7d8                NwpMaskInterrupt
 .text.NwpUnMaskInterrupt
                0x000000002000a7f0       0x18 ../../../simplelink/gcc/lib/os/Debug/libsimplelink.a(cc_pal.o)
                0x000000002000a7f0                NwpUnMaskInterrupt
 .text.NwpPowerOnPreamble
                0x000000002000a808       0x8c ../../../simplelink/gcc/lib/os/Debug/libsimplelink.a(cc_pal.o)
                0x000000002000a808                NwpPowerOnPreamble
 .text.NwpPowerOn
                0x000000002000a894       0x3c ../../../simplelink/gcc/lib/os/Debug/libsimplelink.a(cc_pal.o)
                0x000000002000a894                NwpPowerOn
 .text.NwpPowerOff
                0x000000002000a8d0       0x40 ../../../simplelink/gcc/lib/os/Debug/libsimplelink.a(cc_pal.o)
                0x000000002000a8d0                NwpPowerOff
 .text.NwpPrePowerOffTimout0
                0x000000002000a910       0x24 ../../../simplelink/gcc/lib/os/Debug/libsimplelink.a(cc_pal.o)
                0x000000002000a910                NwpPrePowerOffTimout0
 .text.cc_UDMAChannelSelect
                0x000000002000a934       0x28 ../../../simplelink/gcc/lib/os/Debug/libsimplelink.a(cc_pal.o)
 .text.cc_SetupTransfer
                0x000000002000a95c       0x4a ../../../simplelink/gcc/lib/os/Debug/libsimplelink.a(cc_pal.o)
 *fill*         0x000000002000a9a6        0x2 
 .text.simplelink_timerA2_start
                0x000000002000a9a8       0x40 ../../../simplelink/gcc/lib/os/Debug/libsimplelink.a(cc_pal.o)
                0x000000002000a9a8                simplelink_timerA2_start
 .text.TimerGetCurrentTimestamp
                0x000000002000a9e8       0x28 ../../../simplelink/gcc/lib/os/Debug/libsimplelink.a(cc_pal.o)
                0x000000002000a9e8                TimerGetCurrentTimestamp
 .text.osi_InterruptRegister
                0x000000002000aa10       0x36 ../../../oslib/gcc/free_rtos/Debug/free_rtos.a(osi_freertos.o)
                0x000000002000aa10                osi_InterruptRegister
 .text.osi_InterruptDeRegister
                0x000000002000aa46       0x20 ../../../oslib/gcc/free_rtos/Debug/free_rtos.a(osi_freertos.o)
                0x000000002000aa46                osi_InterruptDeRegister
 .text.osi_SyncObjCreate
                0x000000002000aa66       0x40 ../../../oslib/gcc/free_rtos/Debug/free_rtos.a(osi_freertos.o)
                0x000000002000aa66                osi_SyncObjCreate
 .text.osi_SyncObjDelete
                0x000000002000aaa6       0x28 ../../../oslib/gcc/free_rtos/Debug/free_rtos.a(osi_freertos.o)
                0x000000002000aaa6                osi_SyncObjDelete
 .text.osi_SyncObjSignal
                0x000000002000aace       0x36 ../../../oslib/gcc/free_rtos/Debug/free_rtos.a(osi_freertos.o)
                0x000000002000aace                osi_SyncObjSignal
 .text.osi_SyncObjSignalFromISR
                0x000000002000ab04       0x5c ../../../oslib/gcc/free_rtos/Debug/free_rtos.a(osi_freertos.o)
                0x000000002000ab04                osi_SyncObjSignalFromISR
 .text.osi_SyncObjWait
                0x000000002000ab60       0x38 ../../../oslib/gcc/free_rtos/Debug/free_rtos.a(osi_freertos.o)
                0x000000002000ab60                osi_SyncObjWait
 .text.osi_LockObjCreate
                0x000000002000ab98       0x36 ../../../oslib/gcc/free_rtos/Debug/free_rtos.a(osi_freertos.o)
                0x000000002000ab98                osi_LockObjCreate
 .text.osi_TaskCreate
                0x000000002000abce       0x3e ../../../oslib/gcc/free_rtos/Debug/free_rtos.a(osi_freertos.o)
                0x000000002000abce                osi_TaskCreate
 .text.osi_LockObjDelete
                0x000000002000ac0c       0x1c ../../../oslib/gcc/free_rtos/Debug/free_rtos.a(osi_freertos.o)
                0x000000002000ac0c                osi_LockObjDelete
 .text.osi_LockObjLock
                0x000000002000ac28       0x38 ../../../oslib/gcc/free_rtos/Debug/free_rtos.a(osi_freertos.o)
                0x000000002000ac28                osi_LockObjLock
 .text.osi_LockObjUnlock
                0x000000002000ac60       0x38 ../../../oslib/gcc/free_rtos/Debug/free_rtos.a(osi_freertos.o)
                0x000000002000ac60                osi_LockObjUnlock
 .text.osi_Spawn
                0x000000002000ac98       0x64 ../../../oslib/gcc/free_rtos/Debug/free_rtos.a(osi_freertos.o)
                0x000000002000ac98                osi_Spawn
 .text.vSimpleLinkSpawnTask
                0x000000002000acfc       0x34 ../../../oslib/gcc/free_rtos/Debug/free_rtos.a(osi_freertos.o)
 .text.VStartSimpleLinkSpawnTask
                0x000000002000ad30       0x64 ../../../oslib/gcc/free_rtos/Debug/free_rtos.a(osi_freertos.o)
                0x000000002000ad30                VStartSimpleLinkSpawnTask
 .text.osi_MsgQCreate
                0x000000002000ad94       0x46 ../../../oslib/gcc/free_rtos/Debug/free_rtos.a(osi_freertos.o)
                0x000000002000ad94                osi_MsgQCreate
 .text.osi_MsgQDelete
                0x000000002000adda       0x28 ../../../oslib/gcc/free_rtos/Debug/free_rtos.a(osi_freertos.o)
                0x000000002000adda                osi_MsgQDelete
 *fill*         0x000000002000ae02        0x2 
 .text.osi_MsgQWrite
                0x000000002000ae04       0x54 ../../../oslib/gcc/free_rtos/Debug/free_rtos.a(osi_freertos.o)
                0x000000002000ae04                osi_MsgQWrite
 .text.osi_MsgQRead
                0x000000002000ae58       0x4a ../../../oslib/gcc/free_rtos/Debug/free_rtos.a(osi_freertos.o)
                0x000000002000ae58                osi_MsgQRead
 .text.osi_start
                0x000000002000aea2        0xc ../../../oslib/gcc/free_rtos/Debug/free_rtos.a(osi_freertos.o)
                0x000000002000aea2                osi_start
 .text.osi_Sleep
                0x000000002000aeae       0x1a ../../../oslib/gcc/free_rtos/Debug/free_rtos.a(osi_freertos.o)
                0x000000002000aeae                osi_Sleep
 .text.xQueueGenericReset
                0x000000002000aec8       0xb4 ../../../oslib/gcc/free_rtos/Debug/free_rtos.a(queue.o)
                0x000000002000aec8                xQueueGenericReset
 .text.xQueueGenericCreate
                0x000000002000af7c       0x58 ../../../oslib/gcc/free_rtos/Debug/free_rtos.a(queue.o)
                0x000000002000af7c                xQueueGenericCreate
 .text.prvInitialiseNewQueue
                0x000000002000afd4       0x4c ../../../oslib/gcc/free_rtos/Debug/free_rtos.a(queue.o)
 .text.prvInitialiseMutex
                0x000000002000b020       0x34 ../../../oslib/gcc/free_rtos/Debug/free_rtos.a(queue.o)
 .text.xQueueCreateMutex
                0x000000002000b054       0x30 ../../../oslib/gcc/free_rtos/Debug/free_rtos.a(queue.o)
                0x000000002000b054                xQueueCreateMutex
 .text.xQueueGenericSend
                0x000000002000b084      0x17c ../../../oslib/gcc/free_rtos/Debug/free_rtos.a(queue.o)
                0x000000002000b084                xQueueGenericSend
 .text.xQueueGenericSendFromISR
                0x000000002000b200       0xd8 ../../../oslib/gcc/free_rtos/Debug/free_rtos.a(queue.o)
                0x000000002000b200                xQueueGenericSendFromISR
 .text.xQueueGiveFromISR
                0x000000002000b2d8       0xcc ../../../oslib/gcc/free_rtos/Debug/free_rtos.a(queue.o)
                0x000000002000b2d8                xQueueGiveFromISR
 .text.xQueueReceive
                0x000000002000b3a4      0x144 ../../../oslib/gcc/free_rtos/Debug/free_rtos.a(queue.o)
                0x000000002000b3a4                xQueueReceive
 .text.xQueueSemaphoreTake
                0x000000002000b4e8      0x190 ../../../oslib/gcc/free_rtos/Debug/free_rtos.a(queue.o)
                0x000000002000b4e8                xQueueSemaphoreTake
 .text.vQueueDelete
                0x000000002000b678       0x20 ../../../oslib/gcc/free_rtos/Debug/free_rtos.a(queue.o)
                0x000000002000b678                vQueueDelete
 .text.prvGetDisinheritPriorityAfterTimeout
                0x000000002000b698       0x2e ../../../oslib/gcc/free_rtos/Debug/free_rtos.a(queue.o)
 .text.prvCopyDataToQueue
                0x000000002000b6c6       0xd4 ../../../oslib/gcc/free_rtos/Debug/free_rtos.a(queue.o)
 .text.prvCopyDataFromQueue
                0x000000002000b79a       0x4c ../../../oslib/gcc/free_rtos/Debug/free_rtos.a(queue.o)
 .text.prvUnlockQueue
                0x000000002000b7e6       0xc0 ../../../oslib/gcc/free_rtos/Debug/free_rtos.a(queue.o)
 .text.prvIsQueueEmpty
                0x000000002000b8a6       0x2c ../../../oslib/gcc/free_rtos/Debug/free_rtos.a(queue.o)
 .text.prvIsQueueFull
                0x000000002000b8d2       0x30 ../../../oslib/gcc/free_rtos/Debug/free_rtos.a(queue.o)
 *fill*         0x000000002000b902        0x2 
 .text.vQueueUnregisterQueue
                0x000000002000b904       0x54 ../../../oslib/gcc/free_rtos/Debug/free_rtos.a(queue.o)
                0x000000002000b904                vQueueUnregisterQueue
 .text.prvNotifyQueueSetContainer
                0x000000002000b958       0x76 ../../../oslib/gcc/free_rtos/Debug/free_rtos.a(queue.o)
 .text.xTaskCreate
                0x000000002000b9ce       0x82 ../../../oslib/gcc/free_rtos/Debug/free_rtos.a(tasks.o)
                0x000000002000b9ce                xTaskCreate
 .text.prvInitialiseNewTask
                0x000000002000ba50       0xee ../../../oslib/gcc/free_rtos/Debug/free_rtos.a(tasks.o)
 *fill*         0x000000002000bb3e        0x2 
 .text.prvAddNewTaskToReadyList
                0x000000002000bb40       0xdc ../../../oslib/gcc/free_rtos/Debug/free_rtos.a(tasks.o)
 .text.vTaskDelay
                0x000000002000bc1c       0x48 ../../../oslib/gcc/free_rtos/Debug/free_rtos.a(tasks.o)
                0x000000002000bc1c                vTaskDelay
 .text.vTaskStartScheduler
                0x000000002000bc64       0x70 ../../../oslib/gcc/free_rtos/Debug/free_rtos.a(tasks.o)
                0x000000002000bc64                vTaskStartScheduler
 .text.vTaskSuspendAll
                0x000000002000bcd4       0x1c ../../../oslib/gcc/free_rtos/Debug/free_rtos.a(tasks.o)
                0x000000002000bcd4                vTaskSuspendAll
 .text.xTaskResumeAll
                0x000000002000bcf0      0x11c ../../../oslib/gcc/free_rtos/Debug/free_rtos.a(tasks.o)
                0x000000002000bcf0                xTaskResumeAll
 .text.xTaskIncrementTick
                0x000000002000be0c      0x158 ../../../oslib/gcc/free_rtos/Debug/free_rtos.a(tasks.o)
                0x000000002000be0c                xTaskIncrementTick
 .text.vTaskSwitchContext
                0x000000002000bf64       0xac ../../../oslib/gcc/free_rtos/Debug/free_rtos.a(tasks.o)
                0x000000002000bf64                vTaskSwitchContext
 .text.vTaskPlaceOnEventList
                0x000000002000c010       0x2c ../../../oslib/gcc/free_rtos/Debug/free_rtos.a(tasks.o)
                0x000000002000c010                vTaskPlaceOnEventList
 .text.xTaskRemoveFromEventList
                0x000000002000c03c       0xa8 ../../../oslib/gcc/free_rtos/Debug/free_rtos.a(tasks.o)
                0x000000002000c03c                xTaskRemoveFromEventList
 .text.vTaskInternalSetTimeOutState
                0x000000002000c0e4       0x2c ../../../oslib/gcc/free_rtos/Debug/free_rtos.a(tasks.o)
                0x000000002000c0e4                vTaskInternalSetTimeOutState
 .text.xTaskCheckForTimeOut
                0x000000002000c110       0x8c ../../../oslib/gcc/free_rtos/Debug/free_rtos.a(tasks.o)
                0x000000002000c110                xTaskCheckForTimeOut
 .text.vTaskMissedYield
                0x000000002000c19c       0x18 ../../../oslib/gcc/free_rtos/Debug/free_rtos.a(tasks.o)
                0x000000002000c19c                vTaskMissedYield
 .text.prvIdleTask
                0x000000002000c1b4       0x12 ../../../oslib/gcc/free_rtos/Debug/free_rtos.a(tasks.o)
 *fill*         0x000000002000c1c6        0x2 
 .text.prvInitialiseTaskLists
                0x000000002000c1c8       0x80 ../../../oslib/gcc/free_rtos/Debug/free_rtos.a(tasks.o)
 .text.prvCheckTasksWaitingTermination
                0x000000002000c248       0x5c ../../../oslib/gcc/free_rtos/Debug/free_rtos.a(tasks.o)
 .text.prvDeleteTCB
                0x000000002000c2a4       0x20 ../../../oslib/gcc/free_rtos/Debug/free_rtos.a(tasks.o)
 .text.prvResetNextTaskUnblockTime
                0x000000002000c2c4       0x48 ../../../oslib/gcc/free_rtos/Debug/free_rtos.a(tasks.o)
 .text.xTaskPriorityInherit
                0x000000002000c30c      0x10c ../../../oslib/gcc/free_rtos/Debug/free_rtos.a(tasks.o)
                0x000000002000c30c                xTaskPriorityInherit
 .text.xTaskPriorityDisinherit
                0x000000002000c418       0xc8 ../../../oslib/gcc/free_rtos/Debug/free_rtos.a(tasks.o)
                0x000000002000c418                xTaskPriorityDisinherit
 .text.vTaskPriorityDisinheritAfterTimeout
                0x000000002000c4e0       0xfc ../../../oslib/gcc/free_rtos/Debug/free_rtos.a(tasks.o)
                0x000000002000c4e0                vTaskPriorityDisinheritAfterTimeout
 .text.pvTaskIncrementMutexHeldCount
                0x000000002000c5dc       0x28 ../../../oslib/gcc/free_rtos/Debug/free_rtos.a(tasks.o)
                0x000000002000c5dc                pvTaskIncrementMutexHeldCount
 .text.prvAddCurrentTaskToDelayedList
                0x000000002000c604       0xcc ../../../oslib/gcc/free_rtos/Debug/free_rtos.a(tasks.o)
 .text.pxPortInitialiseStack
                0x000000002000c6d0       0x58 ../../../oslib/gcc/free_rtos/Debug/free_rtos.a(port.o)
                0x000000002000c6d0                pxPortInitialiseStack
 .text.prvTaskExitError
                0x000000002000c728       0x32 ../../../oslib/gcc/free_rtos/Debug/free_rtos.a(port.o)
 *fill*         0x000000002000c75a        0x6 
 .text.vPortSVCHandler
                0x000000002000c760       0x28 ../../../oslib/gcc/free_rtos/Debug/free_rtos.a(port.o)
                0x000000002000c760                vPortSVCHandler
 .text.prvPortStartFirstTask
                0x000000002000c788       0x20 ../../../oslib/gcc/free_rtos/Debug/free_rtos.a(port.o)
 .text.xPortStartScheduler
                0x000000002000c7a8       0x40 ../../../oslib/gcc/free_rtos/Debug/free_rtos.a(port.o)
                0x000000002000c7a8                xPortStartScheduler
 .text.vPortEnterCritical
                0x000000002000c7e8       0x34 ../../../oslib/gcc/free_rtos/Debug/free_rtos.a(port.o)
                0x000000002000c7e8                vPortEnterCritical
 .text.vPortExitCritical
                0x000000002000c81c       0x34 ../../../oslib/gcc/free_rtos/Debug/free_rtos.a(port.o)
                0x000000002000c81c                vPortExitCritical
 .text.xPortPendSVHandler
                0x000000002000c850       0x48 ../../../oslib/gcc/free_rtos/Debug/free_rtos.a(port.o)
                0x000000002000c850                xPortPendSVHandler
 .text.xPortSysTickHandler
                0x000000002000c898       0x44 ../../../oslib/gcc/free_rtos/Debug/free_rtos.a(port.o)
                0x000000002000c898                xPortSysTickHandler
 .text.vPortSetupTimerInterrupt
                0x000000002000c8dc       0x34 ../../../oslib/gcc/free_rtos/Debug/free_rtos.a(port.o)
                0x000000002000c8dc                vPortSetupTimerInterrupt
 .text.pvPortMalloc
                0x000000002000c910       0x2e ../../../oslib/gcc/free_rtos/Debug/free_rtos.a(heap_3.o)
                0x000000002000c910                pvPortMalloc
 .text.vPortFree
                0x000000002000c93e       0x24 ../../../oslib/gcc/free_rtos/Debug/free_rtos.a(heap_3.o)
                0x000000002000c93e                vPortFree
 .text.vListInitialise
                0x000000002000c962       0x3e ../../../oslib/gcc/free_rtos/Debug/free_rtos.a(list.o)
                0x000000002000c962                vListInitialise
 .text.vListInitialiseItem
                0x000000002000c9a0       0x18 ../../../oslib/gcc/free_rtos/Debug/free_rtos.a(list.o)
                0x000000002000c9a0                vListInitialiseItem
 .text.vListInsertEnd
                0x000000002000c9b8       0x46 ../../../oslib/gcc/free_rtos/Debug/free_rtos.a(list.o)
                0x000000002000c9b8                vListInsertEnd
 .text.vListInsert
                0x000000002000c9fe       0x70 ../../../oslib/gcc/free_rtos/Debug/free_rtos.a(list.o)
                0x000000002000c9fe                vListInsert
 .text.uxListRemove
                0x000000002000ca6e       0x52 ../../../oslib/gcc/free_rtos/Debug/free_rtos.a(list.o)
                0x000000002000ca6e                uxListRemove
 .text.GPIODirModeSet
                0x000000002000cac0       0x46 ../../../driverlib/gcc/lib/Debug/libdriver.a(gpio.o)
                0x000000002000cac0                GPIODirModeSet
 .text.GPIOIntTypeSet
                0x000000002000cb06       0xa2 ../../../driverlib/gcc/lib/Debug/libdriver.a(gpio.o)
                0x000000002000cb06                GPIOIntTypeSet
 .text.GPIOIntEnable
                0x000000002000cba8       0x2a ../../../driverlib/gcc/lib/Debug/libdriver.a(gpio.o)
                0x000000002000cba8                GPIOIntEnable
 .text.GPIOIntDisable
                0x000000002000cbd2       0x2a ../../../driverlib/gcc/lib/Debug/libdriver.a(gpio.o)
                0x000000002000cbd2                GPIOIntDisable
 .text.GPIOIntStatus
                0x000000002000cbfc       0x2e ../../../driverlib/gcc/lib/Debug/libdriver.a(gpio.o)
                0x000000002000cbfc                GPIOIntStatus
 .text.GPIOIntClear
                0x000000002000cc2a       0x20 ../../../driverlib/gcc/lib/Debug/libdriver.a(gpio.o)
                0x000000002000cc2a                GPIOIntClear
 .text.GPIOPinRead
                0x000000002000cc4a       0x22 ../../../driverlib/gcc/lib/Debug/libdriver.a(gpio.o)
                0x000000002000cc4a                GPIOPinRead
 .text.GPIOPinWrite
                0x000000002000cc6c       0x2a ../../../driverlib/gcc/lib/Debug/libdriver.a(gpio.o)
                0x000000002000cc6c                GPIOPinWrite
 *fill*         0x000000002000cc96        0x2 
 .text.I2CMasterInitExpClk
                0x000000002000cc98       0x9c ../../../driverlib/gcc/lib/Debug/libdriver.a(i2c.o)
                0x000000002000cc98                I2CMasterInitExpClk
 .text.I2CMasterEnable
                0x000000002000cd34       0x22 ../../../driverlib/gcc/lib/Debug/libdriver.a(i2c.o)
                0x000000002000cd34                I2CMasterEnable
 .text.I2CMasterIntEnableEx
                0x000000002000cd56       0x26 ../../../driverlib/gcc/lib/Debug/libdriver.a(i2c.o)
                0x000000002000cd56                I2CMasterIntEnableEx
 .text.I2CMasterIntStatusEx
                0x000000002000cd7c       0x2a ../../../driverlib/gcc/lib/Debug/libdriver.a(i2c.o)
                0x000000002000cd7c                I2CMasterIntStatusEx
 .text.I2CMasterIntClear
                0x000000002000cda6       0x26 ../../../driverlib/gcc/lib/Debug/libdriver.a(i2c.o)
                0x000000002000cda6                I2CMasterIntClear
 .text.I2CMasterSlaveAddrSet
                0x000000002000cdcc       0x26 ../../../driverlib/gcc/lib/Debug/libdriver.a(i2c.o)
                0x000000002000cdcc                I2CMasterSlaveAddrSet
 .text.I2CMasterControl
                0x000000002000cdf2       0x1e ../../../driverlib/gcc/lib/Debug/libdriver.a(i2c.o)
                0x000000002000cdf2                I2CMasterControl
 .text.I2CMasterErr
                0x000000002000ce10       0x3c ../../../driverlib/gcc/lib/Debug/libdriver.a(i2c.o)
                0x000000002000ce10                I2CMasterErr
 .text.I2CMasterDataPut
                0x000000002000ce4c       0x20 ../../../driverlib/gcc/lib/Debug/libdriver.a(i2c.o)
                0x000000002000ce4c                I2CMasterDataPut
 .text.I2CMasterDataGet
                0x000000002000ce6c       0x18 ../../../driverlib/gcc/lib/Debug/libdriver.a(i2c.o)
                0x000000002000ce6c                I2CMasterDataGet
 .text.I2CMasterTimeoutSet
                0x000000002000ce84       0x1e ../../../driverlib/gcc/lib/Debug/libdriver.a(i2c.o)
                0x000000002000ce84                I2CMasterTimeoutSet
 .text.IntDefaultHandler
                0x000000002000cea2        0x6 ../../../driverlib/gcc/lib/Debug/libdriver.a(interrupt.o)
 .text.IntMasterEnable
                0x000000002000cea8       0x10 ../../../driverlib/gcc/lib/Debug/libdriver.a(interrupt.o)
                0x000000002000cea8                IntMasterEnable
 .text.IntRegister
                0x000000002000ceb8       0x2c ../../../driverlib/gcc/lib/Debug/libdriver.a(interrupt.o)
                0x000000002000ceb8                IntRegister
 .text.IntUnregister
                0x000000002000cee4       0x2c ../../../driverlib/gcc/lib/Debug/libdriver.a(interrupt.o)
                0x000000002000cee4                IntUnregister
 .text.IntPrioritySet
                0x000000002000cf10       0x68 ../../../driverlib/gcc/lib/Debug/libdriver.a(interrupt.o)
                0x000000002000cf10                IntPrioritySet
 .text.IntEnable
                0x000000002000cf78       0xbc ../../../driverlib/gcc/lib/Debug/libdriver.a(interrupt.o)
                0x000000002000cf78                IntEnable
 .text.IntDisable
                0x000000002000d034       0xbc ../../../driverlib/gcc/lib/Debug/libdriver.a(interrupt.o)
                0x000000002000d034                IntDisable
 .text.IntPendClear
                0x000000002000d0f0       0x68 ../../../driverlib/gcc/lib/Debug/libdriver.a(interrupt.o)
                0x000000002000d0f0                IntPendClear
 .text.I2SGBLEnable
                0x000000002000d158       0x3e ../../../driverlib/gcc/lib/Debug/libdriver.a(i2s.o)
 .text.I2SEnable
                0x000000002000d196       0x9e ../../../driverlib/gcc/lib/Debug/libdriver.a(i2s.o)
                0x000000002000d196                I2SEnable
 .text.I2SConfigSetExpClk
                0x000000002000d234      0x118 ../../../driverlib/gcc/lib/Debug/libdriver.a(i2s.o)
                0x000000002000d234                I2SConfigSetExpClk
 .text.I2STxFIFOEnable
                0x000000002000d34c       0x30 ../../../driverlib/gcc/lib/Debug/libdriver.a(i2s.o)
                0x000000002000d34c                I2STxFIFOEnable
 .text.I2SRxFIFOEnable
                0x000000002000d37c       0x34 ../../../driverlib/gcc/lib/Debug/libdriver.a(i2s.o)
                0x000000002000d37c                I2SRxFIFOEnable
 .text.I2SSerializerConfig
                0x000000002000d3b0       0x5c ../../../driverlib/gcc/lib/Debug/libdriver.a(i2s.o)
                0x000000002000d3b0                I2SSerializerConfig
 .text.I2SIntEnable
                0x000000002000d40c       0x50 ../../../driverlib/gcc/lib/Debug/libdriver.a(i2s.o)
                0x000000002000d40c                I2SIntEnable
 .text.I2SIntClear
                0x000000002000d45c       0x48 ../../../driverlib/gcc/lib/Debug/libdriver.a(i2s.o)
                0x000000002000d45c                I2SIntClear
 .text.I2SIntRegister
                0x000000002000d4a4       0x20 ../../../driverlib/gcc/lib/Debug/libdriver.a(i2s.o)
                0x000000002000d4a4                I2SIntRegister
 .text.PinModeSet
                0x000000002000d4c4       0x48 ../../../driverlib/gcc/lib/Debug/libdriver.a(pin.o)
                0x000000002000d4c4                PinModeSet
 .text.PinConfigSet
                0x000000002000d50c       0x9c ../../../driverlib/gcc/lib/Debug/libdriver.a(pin.o)
                0x000000002000d50c                PinConfigSet
 .text.PinTypeUART
                0x000000002000d5a8       0x24 ../../../driverlib/gcc/lib/Debug/libdriver.a(pin.o)
                0x000000002000d5a8                PinTypeUART
 .text.PinTypeI2C
                0x000000002000d5cc       0x26 ../../../driverlib/gcc/lib/Debug/libdriver.a(pin.o)
                0x000000002000d5cc                PinTypeI2C
 .text.PinTypeI2S
                0x000000002000d5f2       0x24 ../../../driverlib/gcc/lib/Debug/libdriver.a(pin.o)
                0x000000002000d5f2                PinTypeI2S
 .text.PinTypeGPIO
                0x000000002000d616       0x3a ../../../driverlib/gcc/lib/Debug/libdriver.a(pin.o)
                0x000000002000d616                PinTypeGPIO
 .text.PRCMSysResetCauseGet
                0x000000002000d650       0x3c ../../../driverlib/gcc/lib/Debug/libdriver.a(prcm.o)
                0x000000002000d650                PRCMSysResetCauseGet
 .text.PRCMPeripheralClkEnable
                0x000000002000d68c       0x5c ../../../driverlib/gcc/lib/Debug/libdriver.a(prcm.o)
                0x000000002000d68c                PRCMPeripheralClkEnable
 .text.PRCMPeripheralClkDisable
                0x000000002000d6e8       0x48 ../../../driverlib/gcc/lib/Debug/libdriver.a(prcm.o)
                0x000000002000d6e8                PRCMPeripheralClkDisable
 .text.PRCMPeripheralClockGet
                0x000000002000d730       0xa8 ../../../driverlib/gcc/lib/Debug/libdriver.a(prcm.o)
                0x000000002000d730                PRCMPeripheralClockGet
 .text.PRCMPeripheralReset
                0x000000002000d7d8       0x8c ../../../driverlib/gcc/lib/Debug/libdriver.a(prcm.o)
                0x000000002000d7d8                PRCMPeripheralReset
 .text.PRCMPeripheralStatusGet
                0x000000002000d864       0x40 ../../../driverlib/gcc/lib/Debug/libdriver.a(prcm.o)
                0x000000002000d864                PRCMPeripheralStatusGet
 .text.PRCMI2SClockFreqSet
                0x000000002000d8a4       0x60 ../../../driverlib/gcc/lib/Debug/libdriver.a(prcm.o)
                0x000000002000d8a4                PRCMI2SClockFreqSet
 .text.PRCMCC3200MCUInit
                0x000000002000d904      0x1a0 ../../../driverlib/gcc/lib/Debug/libdriver.a(prcm.o)
                0x000000002000d904                PRCMCC3200MCUInit
 .text.PRCMHIBRegRead
                0x000000002000daa4       0x20 ../../../driverlib/gcc/lib/Debug/libdriver.a(prcm.o)
                0x000000002000daa4                PRCMHIBRegRead
 .text.PRCMHIBRegWrite
                0x000000002000dac4       0x20 ../../../driverlib/gcc/lib/Debug/libdriver.a(prcm.o)
                0x000000002000dac4                PRCMHIBRegWrite
 .text.SPIDmaMaskGet
                0x000000002000dae4       0x48 ../../../driverlib/gcc/lib/Debug/libdriver.a(spi.o)
 .text.SPIEnable
                0x000000002000db2c       0x26 ../../../driverlib/gcc/lib/Debug/libdriver.a(spi.o)
                0x000000002000db2c                SPIEnable
 .text.SPIDisable
                0x000000002000db52       0x26 ../../../driverlib/gcc/lib/Debug/libdriver.a(spi.o)
                0x000000002000db52                SPIDisable
 .text.SPIDmaEnable
                0x000000002000db78       0x2a ../../../driverlib/gcc/lib/Debug/libdriver.a(spi.o)
                0x000000002000db78                SPIDmaEnable
 .text.SPIDmaDisable
                0x000000002000dba2       0x2a ../../../driverlib/gcc/lib/Debug/libdriver.a(spi.o)
                0x000000002000dba2                SPIDmaDisable
 .text.SPIReset
                0x000000002000dbcc       0x3a ../../../driverlib/gcc/lib/Debug/libdriver.a(spi.o)
                0x000000002000dbcc                SPIReset
 *fill*         0x000000002000dc06        0x2 
 .text.SPIConfigSetExpClk
                0x000000002000dc08       0xb4 ../../../driverlib/gcc/lib/Debug/libdriver.a(spi.o)
                0x000000002000dc08                SPIConfigSetExpClk
 .text.SPIFIFOEnable
                0x000000002000dcbc       0x2a ../../../driverlib/gcc/lib/Debug/libdriver.a(spi.o)
                0x000000002000dcbc                SPIFIFOEnable
 .text.SPIFIFODisable
                0x000000002000dce6       0x2a ../../../driverlib/gcc/lib/Debug/libdriver.a(spi.o)
                0x000000002000dce6                SPIFIFODisable
 .text.SPIFIFOLevelSet
                0x000000002000dd10       0x42 ../../../driverlib/gcc/lib/Debug/libdriver.a(spi.o)
                0x000000002000dd10                SPIFIFOLevelSet
 .text.SPIWordCountSet
                0x000000002000dd52       0x30 ../../../driverlib/gcc/lib/Debug/libdriver.a(spi.o)
                0x000000002000dd52                SPIWordCountSet
 *fill*         0x000000002000dd82        0x2 
 .text.SPIIntEnable
                0x000000002000dd84       0x68 ../../../driverlib/gcc/lib/Debug/libdriver.a(spi.o)
                0x000000002000dd84                SPIIntEnable
 .text.SPIIntClear
                0x000000002000ddec       0x60 ../../../driverlib/gcc/lib/Debug/libdriver.a(spi.o)
                0x000000002000ddec                SPIIntClear
 .text.SPICSEnable
                0x000000002000de4c       0x26 ../../../driverlib/gcc/lib/Debug/libdriver.a(spi.o)
                0x000000002000de4c                SPICSEnable
 .text.SPICSDisable
                0x000000002000de72       0x26 ../../../driverlib/gcc/lib/Debug/libdriver.a(spi.o)
                0x000000002000de72                SPICSDisable
 .text.TimerEnable
                0x000000002000de98       0x2a ../../../driverlib/gcc/lib/Debug/libdriver.a(timer.o)
                0x000000002000de98                TimerEnable
 *fill*         0x000000002000dec2        0x2 
 .text.TimerConfigure
                0x000000002000dec4       0x54 ../../../driverlib/gcc/lib/Debug/libdriver.a(timer.o)
                0x000000002000dec4                TimerConfigure
 .text.TimerPrescaleSet
                0x000000002000df18       0x3c ../../../driverlib/gcc/lib/Debug/libdriver.a(timer.o)
                0x000000002000df18                TimerPrescaleSet
 .text.TimerLoadSet
                0x000000002000df54       0x3c ../../../driverlib/gcc/lib/Debug/libdriver.a(timer.o)
                0x000000002000df54                TimerLoadSet
 .text.TimerValueGet
                0x000000002000df90       0x28 ../../../driverlib/gcc/lib/Debug/libdriver.a(timer.o)
                0x000000002000df90                TimerValueGet
 .text.UARTConfigSetExpClk
                0x000000002000dfb8       0x92 ../../../driverlib/gcc/lib/Debug/libdriver.a(uart.o)
                0x000000002000dfb8                UARTConfigSetExpClk
 .text.UARTEnable
                0x000000002000e04a       0x36 ../../../driverlib/gcc/lib/Debug/libdriver.a(uart.o)
                0x000000002000e04a                UARTEnable
 .text.UARTDisable
                0x000000002000e080       0x46 ../../../driverlib/gcc/lib/Debug/libdriver.a(uart.o)
                0x000000002000e080                UARTDisable
 .text.UARTCharPut
                0x000000002000e0c6       0x2c ../../../driverlib/gcc/lib/Debug/libdriver.a(uart.o)
                0x000000002000e0c6                UARTCharPut
 *fill*         0x000000002000e0f2        0x2 
 .text.uDMAEnable
                0x000000002000e0f4       0x18 ../../../driverlib/gcc/lib/Debug/libdriver.a(udma.o)
                0x000000002000e0f4                uDMAEnable
 .text.uDMAChannelEnable
                0x000000002000e10c       0x24 ../../../driverlib/gcc/lib/Debug/libdriver.a(udma.o)
                0x000000002000e10c                uDMAChannelEnable
 .text.uDMAControlBaseSet
                0x000000002000e130       0x1c ../../../driverlib/gcc/lib/Debug/libdriver.a(udma.o)
                0x000000002000e130                uDMAControlBaseSet
 .text.uDMAControlBaseGet
                0x000000002000e14c       0x14 ../../../driverlib/gcc/lib/Debug/libdriver.a(udma.o)
                0x000000002000e14c                uDMAControlBaseGet
 .text.uDMAChannelAttributeEnable
                0x000000002000e160       0x7c ../../../driverlib/gcc/lib/Debug/libdriver.a(udma.o)
                0x000000002000e160                uDMAChannelAttributeEnable
 .text.uDMAChannelAttributeDisable
                0x000000002000e1dc       0x7c ../../../driverlib/gcc/lib/Debug/libdriver.a(udma.o)
                0x000000002000e1dc                uDMAChannelAttributeDisable
 .text.uDMAChannelControlSet
                0x000000002000e258       0x48 ../../../driverlib/gcc/lib/Debug/libdriver.a(udma.o)
                0x000000002000e258                uDMAChannelControlSet
 .text.uDMAChannelTransferSet
                0x000000002000e2a0      0x104 ../../../driverlib/gcc/lib/Debug/libdriver.a(udma.o)
                0x000000002000e2a0                uDMAChannelTransferSet
 .text.uDMAIntStatus
                0x000000002000e3a4       0x14 ../../../driverlib/gcc/lib/Debug/libdriver.a(udma.o)
                0x000000002000e3a4                uDMAIntStatus
 .text.uDMAIntClear
                0x000000002000e3b8       0x1c ../../../driverlib/gcc/lib/Debug/libdriver.a(udma.o)
                0x000000002000e3b8                uDMAIntClear
 .text.uDMAChannelAssign
                0x000000002000e3d4       0x58 ../../../driverlib/gcc/lib/Debug/libdriver.a(udma.o)
                0x000000002000e3d4                uDMAChannelAssign
 .text.UtilsDelay
                0x000000002000e42c        0xa ../../../driverlib/gcc/lib/Debug/libdriver.a(utils.o)
                0x000000002000e42c                UtilsDelay
 .text.CPUcpsie
                0x000000002000e436       0x16 ../../../driverlib/gcc/lib/Debug/libdriver.a(cpu.o)
                0x000000002000e436                CPUcpsie
 .text.malloc   0x000000002000e44c       0x10 /Applications/ARM/bin/../lib/gcc/arm-none-eabi/10.3.1/../../../../arm-none-eabi/lib/thumb/v7e-m/nofp/libc_nano.a(lib_a-malloc.o)
                0x000000002000e44c                malloc
 .text.free     0x000000002000e45c       0x10 /Applications/ARM/bin/../lib/gcc/arm-none-eabi/10.3.1/../../../../arm-none-eabi/lib/thumb/v7e-m/nofp/libc_nano.a(lib_a-malloc.o)
                0x000000002000e45c                free
 .text.memcpy   0x000000002000e46c       0x1c /Applications/ARM/bin/../lib/gcc/arm-none-eabi/10.3.1/../../../../arm-none-eabi/lib/thumb/v7e-m/nofp/libc_nano.a(lib_a-memcpy-stub.o)
                0x000000002000e46c                memcpy
 .text.memmove  0x000000002000e488       0x34 /Applications/ARM/bin/../lib/gcc/arm-none-eabi/10.3.1/../../../../arm-none-eabi/lib/thumb/v7e-m/nofp/libc_nano.a(lib_a-memmove.o)
                0x000000002000e488                memmove
 .text.memset   0x000000002000e4bc       0x10 /Applications/ARM/bin/../lib/gcc/arm-none-eabi/10.3.1/../../../../arm-none-eabi/lib/thumb/v7e-m/nofp/libc_nano.a(lib_a-memset.o)
                0x000000002000e4bc                memset
 .text._free_r  0x000000002000e4cc       0x94 /Applications/ARM/bin/../lib/gcc/arm-none-eabi/10.3.1/../../../../arm-none-eabi/lib/thumb/v7e-m/nofp/libc_nano.a(lib_a-nano-freer.o)
                0x000000002000e4cc                _free_r
 .text.sbrk_aligned
                0x000000002000e560       0x40 /Applications/ARM/bin/../lib/gcc/arm-none-eabi/10.3.1/../../../../arm-none-eabi/lib/thumb/v7e-m/nofp/libc_nano.a(lib_a-nano-mallocr.o)
 .text._malloc_r
                0x000000002000e5a0       0xe8 /Applications/ARM/bin/../lib/gcc/arm-none-eabi/10.3.1/../../../../arm-none-eabi/lib/thumb/v7e-m/nofp/libc_nano.a(lib_a-nano-mallocr.o)
                0x000000002000e5a0                _malloc_r
 .text.realloc  0x000000002000e688       0x10 /Applications/ARM/bin/../lib/gcc/arm-none-eabi/10.3.1/../../../../arm-none-eabi/lib/thumb/v7e-m/nofp/libc_nano.a(lib_a-realloc.o)
                0x000000002000e688                realloc
 .text._sbrk_r  0x000000002000e698       0x20 /Applications/ARM/bin/../lib/gcc/arm-none-eabi/10.3.1/../../../../arm-none-eabi/lib/thumb/v7e-m/nofp/libc_nano.a(lib_a-sbrkr.o)
                0x000000002000e698                _sbrk_r
 .text._vsnprintf_r
                0x000000002000e6b8       0x56 /Applications/ARM/bin/../lib/gcc/arm-none-eabi/10.3.1/../../../../arm-none-eabi/lib/thumb/v7e-m/nofp/libc_nano.a(lib_a-vsnprintf.o)
                0x000000002000e6b8                _vsnprintf_r
                0x000000002000e6b8                _vsniprintf_r
 *fill*         0x000000002000e70e        0x2 
 .text.vsnprintf
                0x000000002000e710       0x1c /Applications/ARM/bin/../lib/gcc/arm-none-eabi/10.3.1/../../../../arm-none-eabi/lib/thumb/v7e-m/nofp/libc_nano.a(lib_a-vsnprintf.o)
                0x000000002000e710                vsnprintf
                0x000000002000e710                vsniprintf
 .text.__malloc_lock
                0x000000002000e72c        0xc /Applications/ARM/bin/../lib/gcc/arm-none-eabi/10.3.1/../../../../arm-none-eabi/lib/thumb/v7e-m/nofp/libc_nano.a(lib_a-mlock.o)
                0x000000002000e72c                __malloc_lock
 .text.__malloc_unlock
                0x000000002000e738        0xc /Applications/ARM/bin/../lib/gcc/arm-none-eabi/10.3.1/../../../../arm-none-eabi/lib/thumb/v7e-m/nofp/libc_nano.a(lib_a-mlock.o)
                0x000000002000e738                __malloc_unlock
 .text._realloc_r
                0x000000002000e744       0x5e /Applications/ARM/bin/../lib/gcc/arm-none-eabi/10.3.1/../../../../arm-none-eabi/lib/thumb/v7e-m/nofp/libc_nano.a(lib_a-nano-reallocr.o)
                0x000000002000e744                _realloc_r
 .text.__ssputs_r
                0x000000002000e7a2       0xb6 /Applications/ARM/bin/../lib/gcc/arm-none-eabi/10.3.1/../../../../arm-none-eabi/lib/thumb/v7e-m/nofp/libc_nano.a(lib_a-nano-svfprintf.o)
                0x000000002000e7a2                __ssputs_r
 .text._svfprintf_r
                0x000000002000e858      0x200 /Applications/ARM/bin/../lib/gcc/arm-none-eabi/10.3.1/../../../../arm-none-eabi/lib/thumb/v7e-m/nofp/libc_nano.a(lib_a-nano-svfprintf.o)
                0x000000002000e858                _svfprintf_r
                0x000000002000e858                _svfiprintf_r
 .text._printf_common
                0x000000002000ea58       0xda /Applications/ARM/bin/../lib/gcc/arm-none-eabi/10.3.1/../../../../arm-none-eabi/lib/thumb/v7e-m/nofp/libc_nano.a(lib_a-nano-vfprintf_i.o)
                0x000000002000ea58                _printf_common
 *fill*         0x000000002000eb32        0x2 
 .text._printf_i
                0x000000002000eb34      0x24c /Applications/ARM/bin/../lib/gcc/arm-none-eabi/10.3.1/../../../../arm-none-eabi/lib/thumb/v7e-m/nofp/libc_nano.a(lib_a-nano-vfprintf_i.o)
                0x000000002000eb34                _printf_i
 .text.__retarget_lock_acquire_recursive
                0x000000002000ed80        0x2 /Applications/ARM/bin/../lib/gcc/arm-none-eabi/10.3.1/../../../../arm-none-eabi/lib/thumb/v7e-m/nofp/libc_nano.a(lib_a-lock.o)
                0x000000002000ed80                __retarget_lock_acquire_recursive
 .text.__retarget_lock_release_recursive
                0x000000002000ed82        0x2 /Applications/ARM/bin/../lib/gcc/arm-none-eabi/10.3.1/../../../../arm-none-eabi/lib/thumb/v7e-m/nofp/libc_nano.a(lib_a-lock.o)
                0x000000002000ed82                __retarget_lock_release_recursive
 *fill*         0x000000002000ed84        0xc 
 .text          0x000000002000ed90       0xa0 /Applications/ARM/bin/../lib/gcc/arm-none-eabi/10.3.1/../../../../arm-none-eabi/lib/thumb/v7e-m/nofp/libc_nano.a(lib_a-memchr.o)
                0x000000002000ed90                memchr
 .text._malloc_usable_size_r
                0x000000002000ee30       0x10 /Applications/ARM/bin/../lib/gcc/arm-none-eabi/10.3.1/../../../../arm-none-eabi/lib/thumb/v7e-m/nofp/libc_nano.a(lib_a-nano-msizer.o)
                0x000000002000ee30                _malloc_usable_size_r
 .text          0x000000002000ee40       0x30 /Applications/ARM/bin/../lib/gcc/arm-none-eabi/10.3.1/thumb/v7e-m/nofp/libgcc.a(_aeabi_uldivmod.o)
                0x000000002000ee40                __aeabi_uldivmod
 .text          0x000000002000ee70      0x2d0 /Applications/ARM/bin/../lib/gcc/arm-none-eabi/10.3.1/thumb/v7e-m/nofp/libgcc.a(_udivmoddi4.o)
                0x000000002000ee70                __udivmoddi4
 .text          0x000000002000f140        0x4 /Applications/ARM/bin/../lib/gcc/arm-none-eabi/10.3.1/thumb/v7e-m/nofp/libgcc.a(_dvmd_tls.o)
                0x000000002000f140                __aeabi_ldiv0
                0x000000002000f140                __aeabi_idiv0
 *(.rodata*)
 .rodata        0x000000002000f144       0x6d obj/Unicast/Debug/audiocodec.o
 *fill*         0x000000002000f1b1        0x3 
 .rodata        0x000000002000f1b4       0xe9 obj/Unicast/Debug/control.o
 *fill*         0x000000002000f29d        0x3 
 .rodata.__FUNCTION__.2
                0x000000002000f2a0        0xc obj/Unicast/Debug/control.o
 .rodata.__FUNCTION__.1
                0x000000002000f2ac       0x12 obj/Unicast/Debug/control.o
 *fill*         0x000000002000f2be        0x2 
 .rodata        0x000000002000f2c0       0xa8 obj/Unicast/Debug/main.o
 .rodata.__FUNCTION__.0
                0x000000002000f368        0x5 obj/Unicast/Debug/main.o
 *fill*         0x000000002000f36d        0x3 
 .rodata        0x000000002000f370       0x30 obj/Unicast/Debug/microphone.o
 .rodata        0x000000002000f3a0      0x293 obj/Unicast/Debug/network.o
 *fill*         0x000000002000f633        0x1 
 .rodata.__FUNCTION__.2
                0x000000002000f634        0xe obj/Unicast/Debug/network.o
 *fill*         0x000000002000f642        0x2 
 .rodata.__FUNCTION__.1
                0x000000002000f644       0x11 obj/Unicast/Debug/network.o
 *fill*         0x000000002000f655        0x3 
 .rodata.__FUNCTION__.0
                0x000000002000f658       0x10 obj/Unicast/Debug/network.o
 .rodata        0x000000002000f668       0x2d obj/Unicast/Debug/smartconfig.o
 *fill*         0x000000002000f695        0x3 
 .rodata.__FUNCTION__.1
                0x000000002000f698       0x13 obj/Unicast/Debug/smartconfig.o
 *fill*         0x000000002000f6ab        0x1 
 .rodata        0x000000002000f6ac       0x16 obj/Unicast/Debug/speaker.o
 *fill*         0x000000002000f6c2        0x2 
 .rodata        0x000000002000f6c4       0x2a obj/Unicast/Debug/uart_if.o
 *fill*         0x000000002000f6ee        0x2 
 .rodata.StartResponseLUT
                0x000000002000f6f0        0x8 ../../../simplelink/gcc/lib/os/Debug/libsimplelink.a(device.o)
 .rodata._SlStopCmdCtrl
                0x000000002000f6f8        0x4 ../../../simplelink/gcc/lib/os/Debug/libsimplelink.a(device.o)
 .rodata.g_H2NSyncPattern
                0x000000002000f6fc        0x8 ../../../simplelink/gcc/lib/os/Debug/libsimplelink.a(driver.o)
 .rodata.g_H2NCnysPattern
                0x000000002000f704        0x8 ../../../simplelink/gcc/lib/os/Debug/libsimplelink.a(driver.o)
 .rodata._SlActionLookupTable
                0x000000002000f70c       0x38 ../../../simplelink/gcc/lib/os/Debug/libsimplelink.a(driver.o)
                0x000000002000f70c                _SlActionLookupTable
 .rodata.OpcodeTranslateTable
                0x000000002000f744       0x3c ../../../simplelink/gcc/lib/os/Debug/libsimplelink.a(driver.o)
                0x000000002000f744                OpcodeTranslateTable
 .rodata.RxMsgClassLUT
                0x000000002000f780       0x20 ../../../simplelink/gcc/lib/os/Debug/libsimplelink.a(driver.o)
 .rodata._SlRegisterServiceCtrl
                0x000000002000f7a0        0x4 ../../../simplelink/gcc/lib/os/Debug/libsimplelink.a(netapp.o)
 .rodata._SlGetHostByServiceCtrl
                0x000000002000f7a4        0x4 ../../../simplelink/gcc/lib/os/Debug/libsimplelink.a(netapp.o)
 .rodata._SlNetAppSendTokenValueCmdCtrl
                0x000000002000f7a8        0x4 ../../../simplelink/gcc/lib/os/Debug/libsimplelink.a(netapp.o)
                0x000000002000f7a8                _SlNetAppSendTokenValueCmdCtrl
 .rodata._SlPayloadByProtocolLUT
                0x000000002000f7ac       0x10 ../../../simplelink/gcc/lib/os/Debug/libsimplelink.a(socket.o)
 .rodata._SlSockSocketCmdCtrl
                0x000000002000f7bc        0x4 ../../../simplelink/gcc/lib/os/Debug/libsimplelink.a(socket.o)
 .rodata._SlRecvfomCmdCtrl
                0x000000002000f7c0        0x4 ../../../simplelink/gcc/lib/os/Debug/libsimplelink.a(socket.o)
 .rodata._SlSelectCmdCtrl
                0x000000002000f7c4        0x4 ../../../simplelink/gcc/lib/os/Debug/libsimplelink.a(socket.o)
 .rodata._SlPolicySetCmdCtrl
                0x000000002000f7c8        0x4 ../../../simplelink/gcc/lib/os/Debug/libsimplelink.a(wlan.o)
 .rodata._SlProfileDelCmdCtrl
                0x000000002000f7cc        0x4 ../../../simplelink/gcc/lib/os/Debug/libsimplelink.a(wlan.o)
 .rodata._SlSmartConfigStartCmdCtrl
                0x000000002000f7d0        0x4 ../../../simplelink/gcc/lib/os/Debug/libsimplelink.a(wlan.o)
 .rodata._SlWlanSetModeCmdCtrl
                0x000000002000f7d4        0x4 ../../../simplelink/gcc/lib/os/Debug/libsimplelink.a(wlan.o)
 .rodata        0x000000002000f7d8        0x9 ../../../simplelink/gcc/lib/os/Debug/libsimplelink.a(cc_pal.o)
 *fill*         0x000000002000f7e1        0x3 
 .rodata        0x000000002000f7e4        0x8 ../../../oslib/gcc/free_rtos/Debug/free_rtos.a(osi_freertos.o)
 .rodata        0x000000002000f7ec        0x5 ../../../oslib/gcc/free_rtos/Debug/free_rtos.a(tasks.o)
 *fill*         0x000000002000f7f1        0x3 
 .rodata.g_pulRegs
                0x000000002000f7f4       0xd4 ../../../driverlib/gcc/lib/Debug/libdriver.a(interrupt.o)
 .rodata.g_pulEnRegs
                0x000000002000f8c8       0x18 ../../../driverlib/gcc/lib/Debug/libdriver.a(interrupt.o)
 .rodata.g_pulDisRegs
                0x000000002000f8e0       0x18 ../../../driverlib/gcc/lib/Debug/libdriver.a(interrupt.o)
 .rodata.g_pulUnpendRegs
                0x000000002000f8f8       0x18 ../../../driverlib/gcc/lib/Debug/libdriver.a(interrupt.o)
 .rodata.g_ulPinToPadMap
                0x000000002000f910      0x100 ../../../driverlib/gcc/lib/Debug/libdriver.a(pin.o)
 .rodata.PRCM_PeriphRegsList
                0x000000002000fa10       0xa8 ../../../driverlib/gcc/lib/Debug/libdriver.a(prcm.o)
 .rodata.g_ulSPIDmaMaskMap
                0x000000002000fab8       0x18 ../../../driverlib/gcc/lib/Debug/libdriver.a(spi.o)
 .rodata._svfprintf_r.str1.1
                0x000000002000fad0       0x11 /Applications/ARM/bin/../lib/gcc/arm-none-eabi/10.3.1/../../../../arm-none-eabi/lib/thumb/v7e-m/nofp/libc_nano.a(lib_a-nano-svfprintf.o)
 .rodata._printf_i.str1.1
                0x000000002000fae1       0x22 /Applications/ARM/bin/../lib/gcc/arm-none-eabi/10.3.1/../../../../arm-none-eabi/lib/thumb/v7e-m/nofp/libc_nano.a(lib_a-nano-vfprintf_i.o)
 *(.ARM.extab* .gnu.linkonce.armextab.*)
                0x000000002000fb08                . = ALIGN (0x8)
 *fill*         0x000000002000fb03        0x5 
                0x000000002000fb08                _etext = .

.glue_7         0x000000002000fb08        0x0
 .glue_7        0x000000002000fb08        0x0 linker stubs

.glue_7t        0x000000002000fb08        0x0
 .glue_7t       0x000000002000fb08        0x0 linker stubs

.vfp11_veneer   0x000000002000fb08        0x0
 .vfp11_veneer  0x000000002000fb08        0x0 linker stubs

.v4_bx          0x000000002000fb08        0x0
 .v4_bx         0x000000002000fb08        0x0 linker stubs

.iplt           0x000000002000fb08        0x0
 .iplt          0x000000002000fb08        0x0 obj/Unicast/Debug/audiocodec.o

.ARM            0x000000002000fb08        0x8
                0x000000002000fb08                __exidx_start = .
 *(.ARM.exidx*)
 .ARM.exidx     0x000000002000fb08        0x8 /Applications/ARM/bin/../lib/gcc/arm-none-eabi/10.3.1/thumb/v7e-m/nofp/libgcc.a(_udivmoddi4.o)
                0x000000002000fb10                __exidx_end = .
                0x000000002000fb10                __init_data = .

.rel.dyn        0x000000002000fb10        0x0
 .rel.iplt      0x000000002000fb10        0x0 obj/Unicast/Debug/audiocodec.o

.data           0x000000002000fb10       0x88
                0x000000002000fb10                _data = .
 *(.data*)
 .data.g_loopback
                0x000000002000fb10        0x1 obj/Unicast/Debug/main.o
                0x000000002000fb10                g_loopback
 *fill*         0x000000002000fb11        0x3 
 .data.ulReg    0x000000002000fb14       0x14 obj/Unicast/Debug/gpio_if.o
 .data.wlan_callbacks
                0x000000002000fb28        0x4 ../../../simplelink/gcc/lib/os/Debug/libsimplelink.a(driver.o)
 .data.uxCriticalNesting
                0x000000002000fb2c        0x4 ../../../oslib/gcc/free_rtos/Debug/free_rtos.a(port.o)
 .data._impure_ptr
                0x000000002000fb30        0x4 /Applications/ARM/bin/../lib/gcc/arm-none-eabi/10.3.1/../../../../arm-none-eabi/lib/thumb/v7e-m/nofp/libc_nano.a(lib_a-impure.o)
                0x000000002000fb30                _impure_ptr
 .data.impure_data
                0x000000002000fb34       0x60 /Applications/ARM/bin/../lib/gcc/arm-none-eabi/10.3.1/../../../../arm-none-eabi/lib/thumb/v7e-m/nofp/libc_nano.a(lib_a-impure.o)
                0x000000002000fb98                . = ALIGN (0x8)
 *fill*         0x000000002000fb94        0x4 
                0x000000002000fb98                _edata = .

.igot.plt       0x000000002000fb98        0x0
 .igot.plt      0x000000002000fb98        0x0 obj/Unicast/Debug/audiocodec.o

.bss            0x000000002000fc00     0x5bd1
                0x000000002000fc00                _bss = .
 *(.bss*)
 .bss.val       0x000000002000fc00        0x2 obj/Unicast/Debug/audiocodec.o
 .bss.I         0x000000002000fc02        0x1 obj/Unicast/Debug/audiocodec.o
 .bss.J         0x000000002000fc03        0x1 obj/Unicast/Debug/audiocodec.o
 .bss.vol.0     0x000000002000fc04        0x1 obj/Unicast/Debug/audiocodec.o
 *fill*         0x000000002000fc05        0x3 
 .bss.g_pAudioInControlHdl
                0x000000002000fc08        0x4 obj/Unicast/Debug/control.o
                0x000000002000fc08                g_pAudioInControlHdl
 .bss.g_pAudioOutControlHdl
                0x000000002000fc0c        0x4 obj/Unicast/Debug/control.o
                0x000000002000fc0c                g_pAudioOutControlHdl
 .bss.g_AudioControlTask
                0x000000002000fc10        0x4 obj/Unicast/Debug/control.o
                0x000000002000fc10                g_AudioControlTask
 .bss.g_ControlMsgQueue
                0x000000002000fc14        0x4 obj/Unicast/Debug/control.o
                0x000000002000fc14                g_ControlMsgQueue
 .bss.g_ucMicStartFlag
                0x000000002000fc18        0x1 obj/Unicast/Debug/control.o
                0x000000002000fc18                g_ucMicStartFlag
 .bss.g_ucSpkrStartFlag
                0x000000002000fc19        0x1 obj/Unicast/Debug/control.o
                0x000000002000fc19                g_ucSpkrStartFlag
 *fill*         0x000000002000fc1a        0x2 
 .bss.pRecordBuffer
                0x000000002000fc1c        0x4 obj/Unicast/Debug/main.o
                0x000000002000fc1c                pRecordBuffer
 .bss.pPlayBuffer
                0x000000002000fc20        0x4 obj/Unicast/Debug/main.o
                0x000000002000fc20                pPlayBuffer
 .bss.g_UdpSock
                0x000000002000fc24       0x2c obj/Unicast/Debug/main.o
                0x000000002000fc24                g_UdpSock
 .bss.g_SpeakerTask
                0x000000002000fc50        0x4 obj/Unicast/Debug/main.o
                0x000000002000fc50                g_SpeakerTask
 .bss.g_MicTask
                0x000000002000fc54        0x4 obj/Unicast/Debug/main.o
                0x000000002000fc54                g_MicTask
 .bss.g_NetworkTask
                0x000000002000fc58        0x4 obj/Unicast/Debug/main.o
                0x000000002000fc58                g_NetworkTask
 .bss.g_iSentCount
                0x000000002000fc5c        0x4 obj/Unicast/Debug/microphone.o
                0x000000002000fc5c                g_iSentCount
 .bss.g_ulStatus
                0x000000002000fc60        0x4 obj/Unicast/Debug/network.o
                0x000000002000fc60                g_ulStatus
 .bss.g_uiIpAddress
                0x000000002000fc64        0x4 obj/Unicast/Debug/network.o
                0x000000002000fc64                g_uiIpAddress
 .bss.g_ucConnectionSSID
                0x000000002000fc68       0x21 obj/Unicast/Debug/network.o
                0x000000002000fc68                g_ucConnectionSSID
 *fill*         0x000000002000fc89        0x3 
 .bss.g_ucConnectionBSSID
                0x000000002000fc8c        0x6 obj/Unicast/Debug/network.o
                0x000000002000fc8c                g_ucConnectionBSSID
 *fill*         0x000000002000fc92        0x2 
 .bss.g_pRecordBuffer
                0x000000002000fc94        0x4 obj/Unicast/Debug/pcm_handler.o
                0x000000002000fc94                g_pRecordBuffer
 .bss.g_pPlayBuffer
                0x000000002000fc98        0x4 obj/Unicast/Debug/pcm_handler.o
                0x000000002000fc98                g_pPlayBuffer
 .bss.gaucZeroBuffer
                0x000000002000fc9c      0x200 obj/Unicast/Debug/pcm_handler.o
                0x000000002000fc9c                gaucZeroBuffer
 .bss.g_uiPlayWaterMark
                0x000000002000fe9c        0x4 obj/Unicast/Debug/pcm_handler.o
                0x000000002000fe9c                g_uiPlayWaterMark
 .bss.g_iReceiveCount
                0x000000002000fea0        0x4 obj/Unicast/Debug/speaker.o
                0x000000002000fea0                g_iReceiveCount
 .bss.g_iRetVal
                0x000000002000fea4        0x4 obj/Unicast/Debug/speaker.o
                0x000000002000fea4                g_iRetVal
 .bss.speaker_data
                0x000000002000fea8     0x4000 obj/Unicast/Debug/speaker.o
                0x000000002000fea8                speaker_data
 .bss.__Errorlog
                0x0000000020013ea8        0x4 obj/Unicast/Debug/uart_if.o
 .bss.iDone     0x0000000020013eac        0x1 obj/Unicast/Debug/udma_if.o
                0x0000000020013eac                iDone
 *fill*         0x0000000020013ead        0x3 
 .bss.gfpAppCallbackHndl
                0x0000000020013eb0      0x100 obj/Unicast/Debug/udma_if.o
                0x0000000020013eb0                gfpAppCallbackHndl
 *fill*         0x0000000020013fb0       0x50 
 .bss.gpCtlTbl  0x0000000020014000      0x400 obj/Unicast/Debug/udma_if.o
                0x0000000020014000                gpCtlTbl
 .bss.g_uiLED1Port
                0x0000000020014400        0x4 obj/Unicast/Debug/gpio_if.o
                0x0000000020014400                g_uiLED1Port
 .bss.g_uiLED2Port
                0x0000000020014404        0x4 obj/Unicast/Debug/gpio_if.o
                0x0000000020014404                g_uiLED2Port
 .bss.g_uiLED3Port
                0x0000000020014408        0x4 obj/Unicast/Debug/gpio_if.o
                0x0000000020014408                g_uiLED3Port
 .bss.g_ucLED1Pin
                0x000000002001440c        0x1 obj/Unicast/Debug/gpio_if.o
                0x000000002001440c                g_ucLED1Pin
 .bss.g_ucLED2Pin
                0x000000002001440d        0x1 obj/Unicast/Debug/gpio_if.o
                0x000000002001440d                g_ucLED2Pin
 .bss.g_ucLED3Pin
                0x000000002001440e        0x1 obj/Unicast/Debug/gpio_if.o
                0x000000002001440e                g_ucLED3Pin
 *fill*         0x000000002001440f        0x1 
 .bss.heap_end  0x0000000020014410        0x4 obj/Unicast/Debug/startup_gcc.o
 .bss.pui32Stack
                0x0000000020014414     0x1000 obj/Unicast/Debug/startup_gcc.o
 .bss.g_SlDeviceStatus
                0x0000000020015414        0x2 ../../../simplelink/gcc/lib/os/Debug/libsimplelink.a(driver.o)
                0x0000000020015414                g_SlDeviceStatus
 *fill*         0x0000000020015416        0x2 
 .bss.g_StatMem
                0x0000000020015418      0x178 ../../../simplelink/gcc/lib/os/Debug/libsimplelink.a(driver.o)
 .bss.RxIrqCnt  0x0000000020015590        0x1 ../../../simplelink/gcc/lib/os/Debug/libsimplelink.a(driver.o)
                0x0000000020015590                RxIrqCnt
 .bss.g_bDeviceRestartIsRequired
                0x0000000020015591        0x1 ../../../simplelink/gcc/lib/os/Debug/libsimplelink.a(driver.o)
                0x0000000020015591                g_bDeviceRestartIsRequired
 *fill*         0x0000000020015592        0x2 
 .bss.g_pCB     0x0000000020015594        0x4 ../../../simplelink/gcc/lib/os/Debug/libsimplelink.a(driver.o)
                0x0000000020015594                g_pCB
 .bss.pPingCallBackFunc
                0x0000000020015598        0x4 ../../../simplelink/gcc/lib/os/Debug/libsimplelink.a(driver.o)
                0x0000000020015598                pPingCallBackFunc
 .bss.gFirstCmdMode
                0x000000002001559c        0x1 ../../../simplelink/gcc/lib/os/Debug/libsimplelink.a(driver.o)
 *fill*         0x000000002001559d        0x3 
 .bss.g_SpiFd   0x00000000200155a0        0x4 ../../../simplelink/gcc/lib/os/Debug/libsimplelink.a(cc_pal.o)
                0x00000000200155a0                g_SpiFd
 .bss.g_ucDinDout
                0x00000000200155a4       0x50 ../../../simplelink/gcc/lib/os/Debug/libsimplelink.a(cc_pal.o)
                0x00000000200155a4                g_ucDinDout
 .bss.g_ucDMAEnabled
                0x00000000200155f4        0x1 ../../../simplelink/gcc/lib/os/Debug/libsimplelink.a(cc_pal.o)
                0x00000000200155f4                g_ucDMAEnabled
 *fill*         0x00000000200155f5        0x3 
 .bss.DMAMsgQ   0x00000000200155f8        0x4 ../../../simplelink/gcc/lib/os/Debug/libsimplelink.a(cc_pal.o)
                0x00000000200155f8                DMAMsgQ
 .bss.g_cDummy  0x00000000200155fc        0x4 ../../../simplelink/gcc/lib/os/Debug/libsimplelink.a(cc_pal.o)
                0x00000000200155fc                g_cDummy
 .bss.xHigherPriorityTaskWoken
                0x0000000020015600        0x4 ../../../oslib/gcc/free_rtos/Debug/free_rtos.a(osi_freertos.o)
                0x0000000020015600                xHigherPriorityTaskWoken
 .bss.xSimpleLinkSpawnQueue
                0x0000000020015604        0x4 ../../../oslib/gcc/free_rtos/Debug/free_rtos.a(osi_freertos.o)
                0x0000000020015604                xSimpleLinkSpawnQueue
 .bss.xSimpleLinkSpawnTaskHndl
                0x0000000020015608        0x4 ../../../oslib/gcc/free_rtos/Debug/free_rtos.a(osi_freertos.o)
                0x0000000020015608                xSimpleLinkSpawnTaskHndl
 .bss.xQueueRegistry
                0x000000002001560c       0x50 ../../../oslib/gcc/free_rtos/Debug/free_rtos.a(queue.o)
                0x000000002001560c                xQueueRegistry
 .bss.pxCurrentTCB
                0x000000002001565c        0x4 ../../../oslib/gcc/free_rtos/Debug/free_rtos.a(tasks.o)
                0x000000002001565c                pxCurrentTCB
 .bss.pxReadyTasksLists
                0x0000000020015660       0xc8 ../../../oslib/gcc/free_rtos/Debug/free_rtos.a(tasks.o)
 .bss.xDelayedTaskList1
                0x0000000020015728       0x14 ../../../oslib/gcc/free_rtos/Debug/free_rtos.a(tasks.o)
 .bss.xDelayedTaskList2
                0x000000002001573c       0x14 ../../../oslib/gcc/free_rtos/Debug/free_rtos.a(tasks.o)
 .bss.pxDelayedTaskList
                0x0000000020015750        0x4 ../../../oslib/gcc/free_rtos/Debug/free_rtos.a(tasks.o)
 .bss.pxOverflowDelayedTaskList
                0x0000000020015754        0x4 ../../../oslib/gcc/free_rtos/Debug/free_rtos.a(tasks.o)
 .bss.xPendingReadyList
                0x0000000020015758       0x14 ../../../oslib/gcc/free_rtos/Debug/free_rtos.a(tasks.o)
 .bss.xTasksWaitingTermination
                0x000000002001576c       0x14 ../../../oslib/gcc/free_rtos/Debug/free_rtos.a(tasks.o)
 .bss.uxDeletedTasksWaitingCleanUp
                0x0000000020015780        0x4 ../../../oslib/gcc/free_rtos/Debug/free_rtos.a(tasks.o)
 .bss.xSuspendedTaskList
                0x0000000020015784       0x14 ../../../oslib/gcc/free_rtos/Debug/free_rtos.a(tasks.o)
 .bss.uxCurrentNumberOfTasks
                0x0000000020015798        0x4 ../../../oslib/gcc/free_rtos/Debug/free_rtos.a(tasks.o)
 .bss.xTickCount
                0x000000002001579c        0x4 ../../../oslib/gcc/free_rtos/Debug/free_rtos.a(tasks.o)
 .bss.uxTopReadyPriority
                0x00000000200157a0        0x4 ../../../oslib/gcc/free_rtos/Debug/free_rtos.a(tasks.o)
 .bss.xSchedulerRunning
                0x00000000200157a4        0x4 ../../../oslib/gcc/free_rtos/Debug/free_rtos.a(tasks.o)
 .bss.uxPendedTicks
                0x00000000200157a8        0x4 ../../../oslib/gcc/free_rtos/Debug/free_rtos.a(tasks.o)
 .bss.xYieldPending
                0x00000000200157ac        0x4 ../../../oslib/gcc/free_rtos/Debug/free_rtos.a(tasks.o)
 .bss.xNumOfOverflows
                0x00000000200157b0        0x4 ../../../oslib/gcc/free_rtos/Debug/free_rtos.a(tasks.o)
 .bss.uxTaskNumber
                0x00000000200157b4        0x4 ../../../oslib/gcc/free_rtos/Debug/free_rtos.a(tasks.o)
 .bss.xNextTaskUnblockTime
                0x00000000200157b8        0x4 ../../../oslib/gcc/free_rtos/Debug/free_rtos.a(tasks.o)
 .bss.xIdleTaskHandle
                0x00000000200157bc        0x4 ../../../oslib/gcc/free_rtos/Debug/free_rtos.a(tasks.o)
 .bss.uxSchedulerSuspended
                0x00000000200157c0        0x4 ../../../oslib/gcc/free_rtos/Debug/free_rtos.a(tasks.o)
 .bss.__malloc_free_list
                0x00000000200157c4        0x4 /Applications/ARM/bin/../lib/gcc/arm-none-eabi/10.3.1/../../../../arm-none-eabi/lib/thumb/v7e-m/nofp/libc_nano.a(lib_a-nano-mallocr.o)
                0x00000000200157c4                __malloc_free_list
 .bss.__malloc_sbrk_start
                0x00000000200157c8        0x4 /Applications/ARM/bin/../lib/gcc/arm-none-eabi/10.3.1/../../../../arm-none-eabi/lib/thumb/v7e-m/nofp/libc_nano.a(lib_a-nano-mallocr.o)
                0x00000000200157c8                __malloc_sbrk_start
 .bss.errno     0x00000000200157cc        0x4 /Applications/ARM/bin/../lib/gcc/arm-none-eabi/10.3.1/../../../../arm-none-eabi/lib/thumb/v7e-m/nofp/libc_nano.a(lib_a-reent.o)
                0x00000000200157cc                errno
 .bss.__lock___malloc_recursive_mutex
                0x00000000200157d0        0x1 /Applications/ARM/bin/../lib/gcc/arm-none-eabi/10.3.1/../../../../arm-none-eabi/lib/thumb/v7e-m/nofp/libc_nano.a(lib_a-lock.o)
                0x00000000200157d0                __lock___malloc_recursive_mutex
 *(COMMON)
                0x00000000200157d1                _ebss = .

.heap           0x00000000200157d1    0x2a82f
                0x00000000200157d1                _heap = .
                0x000000002003fc68                . = (((((((. + LENGTH (SRAM)) - SIZEOF (.bss)) - SIZEOF (.data)) - SIZEOF (.ARM)) - SIZEOF (.text)) - SIZEOF (.bootloader)) - 0x400)
 *fill*         0x00000000200157d1    0x2a497 
                0x0000000020040000                . = ALIGN (0x400)
 *fill*         0x000000002003fc68      0x398 
                0x0000000020040000                _eheap = .
LOAD obj/Unicast/Debug/audiocodec.o
LOAD obj/Unicast/Debug/circ_buff.o
LOAD obj/Unicast/Debug/control.o
LOAD obj/Unicast/Debug/main.o
LOAD obj/Unicast/Debug/microphone.o
LOAD obj/Unicast/Debug/network.o
LOAD obj/Unicast/Debug/pcm_handler.o
LOAD obj/Unicast/Debug/pinmux.o
LOAD obj/Unicast/Debug/smartconfig.o
LOAD obj/Unicast/Debug/speaker.o
LOAD obj/Unicast/Debug/uart_if.o
LOAD obj/Unicast/Debug/i2c_if.o
LOAD obj/Unicast/Debug/i2s_if.o
LOAD obj/Unicast/Debug/udma_if.o
LOAD obj/Unicast/Debug/gpio_if.o
LOAD obj/Unicast/Debug/startup_gcc.o
LOAD ../../../simplelink/gcc/lib/os/Debug/libsimplelink.a
LOAD ../../../oslib/gcc/free_rtos/Debug/free_rtos.a
LOAD ../../../driverlib/gcc/lib/Debug/libdriver.a
LOAD /Applications/ARM/bin/../lib/gcc/arm-none-eabi/10.3.1/../../../../arm-none-eabi/lib/thumb/v7e-m/nofp/libm.a
LOAD /Applications/ARM/bin/../lib/gcc/arm-none-eabi/10.3.1/../../../../arm-none-eabi/lib/thumb/v7e-m/nofp/libc_nano.a
LOAD /Applications/ARM/bin/../lib/gcc/arm-none-eabi/10.3.1/thumb/v7e-m/nofp/libgcc.a
LOAD /Applications/ARM/bin/../lib/gcc/arm-none-eabi/10.3.1/../../../../arm-none-eabi/lib/thumb/v7e-m/nofp/libnosys.a
OUTPUT(bin/Unicast/Debug/wifi_audio_app.elf elf32-littlearm)
LOAD linker stubs

.debug_info     0x0000000000000000    0x15012
 .debug_info    0x0000000000000000      0x419 obj/Unicast/Debug/audiocodec.o
 .debug_info    0x0000000000000419      0x494 obj/Unicast/Debug/circ_buff.o
 .debug_info    0x00000000000008ad      0x60f obj/Unicast/Debug/control.o
 .debug_info    0x0000000000000ebc      0x3ec obj/Unicast/Debug/main.o
 .debug_info    0x00000000000012a8      0x2ae obj/Unicast/Debug/microphone.o
 .debug_info    0x0000000000001556      0xeda obj/Unicast/Debug/network.o
 .debug_info    0x0000000000002430      0x244 obj/Unicast/Debug/pcm_handler.o
 .debug_info    0x0000000000002674       0x46 obj/Unicast/Debug/pinmux.o
 .debug_info    0x00000000000026ba      0x123 obj/Unicast/Debug/smartconfig.o
 .debug_info    0x00000000000027dd      0x37d obj/Unicast/Debug/speaker.o
 .debug_info    0x0000000000002b5a      0x2c4 obj/Unicast/Debug/uart_if.o
 .debug_info    0x0000000000002e1e      0x2dd obj/Unicast/Debug/i2c_if.o
 .debug_info    0x00000000000030fb      0x19d obj/Unicast/Debug/i2s_if.o
 .debug_info    0x0000000000003298      0x39b obj/Unicast/Debug/udma_if.o
 .debug_info    0x0000000000003633      0x408 obj/Unicast/Debug/gpio_if.o
 .debug_info    0x0000000000003a3b      0x1f9 obj/Unicast/Debug/startup_gcc.o
 .debug_info    0x0000000000003c34     0x103a ../../../simplelink/gcc/lib/os/Debug/libsimplelink.a(device.o)
 .debug_info    0x0000000000004c6e     0x23de ../../../simplelink/gcc/lib/os/Debug/libsimplelink.a(driver.o)
 .debug_info    0x000000000000704c     0x1add ../../../simplelink/gcc/lib/os/Debug/libsimplelink.a(netapp.o)
 .debug_info    0x0000000000008b29     0x1c57 ../../../simplelink/gcc/lib/os/Debug/libsimplelink.a(socket.o)
 .debug_info    0x000000000000a780     0x1c53 ../../../simplelink/gcc/lib/os/Debug/libsimplelink.a(wlan.o)
 .debug_info    0x000000000000c3d3      0x72f ../../../simplelink/gcc/lib/os/Debug/libsimplelink.a(cc_pal.o)
 .debug_info    0x000000000000cb02      0x94e ../../../oslib/gcc/free_rtos/Debug/free_rtos.a(osi_freertos.o)
 .debug_info    0x000000000000d450     0x12b5 ../../../oslib/gcc/free_rtos/Debug/free_rtos.a(queue.o)
 .debug_info    0x000000000000e705     0x1a12 ../../../oslib/gcc/free_rtos/Debug/free_rtos.a(tasks.o)
 .debug_info    0x0000000000010117      0x2d6 ../../../oslib/gcc/free_rtos/Debug/free_rtos.a(port.o)
 .debug_info    0x00000000000103ed       0xed ../../../oslib/gcc/free_rtos/Debug/free_rtos.a(heap_3.o)
 .debug_info    0x00000000000104da      0x2c0 ../../../oslib/gcc/free_rtos/Debug/free_rtos.a(list.o)
 .debug_info    0x000000000001079a      0x3e6 ../../../driverlib/gcc/lib/Debug/libdriver.a(gpio.o)
 .debug_info    0x0000000000010b80      0xc41 ../../../driverlib/gcc/lib/Debug/libdriver.a(i2c.o)
 .debug_info    0x00000000000117c1      0x3a2 ../../../driverlib/gcc/lib/Debug/libdriver.a(interrupt.o)
 .debug_info    0x0000000000011b63      0x5e3 ../../../driverlib/gcc/lib/Debug/libdriver.a(i2s.o)
 .debug_info    0x0000000000012146      0x422 ../../../driverlib/gcc/lib/Debug/libdriver.a(pin.o)
 .debug_info    0x0000000000012568      0xac8 ../../../driverlib/gcc/lib/Debug/libdriver.a(prcm.o)
 .debug_info    0x0000000000013030      0xa4b ../../../driverlib/gcc/lib/Debug/libdriver.a(spi.o)
 .debug_info    0x0000000000013a7b      0x612 ../../../driverlib/gcc/lib/Debug/libdriver.a(timer.o)
 .debug_info    0x000000000001408d      0x89d ../../../driverlib/gcc/lib/Debug/libdriver.a(uart.o)
 .debug_info    0x000000000001492a      0x58d ../../../driverlib/gcc/lib/Debug/libdriver.a(udma.o)
 .debug_info    0x0000000000014eb7       0x52 ../../../driverlib/gcc/lib/Debug/libdriver.a(utils.o)
 .debug_info    0x0000000000014f09      0x109 ../../../driverlib/gcc/lib/Debug/libdriver.a(cpu.o)

.debug_abbrev   0x0000000000000000     0x3f65
 .debug_abbrev  0x0000000000000000      0x153 obj/Unicast/Debug/audiocodec.o
 .debug_abbrev  0x0000000000000153      0x174 obj/Unicast/Debug/circ_buff.o
 .debug_abbrev  0x00000000000002c7      0x21f obj/Unicast/Debug/control.o
 .debug_abbrev  0x00000000000004e6      0x197 obj/Unicast/Debug/main.o
 .debug_abbrev  0x000000000000067d      0x120 obj/Unicast/Debug/microphone.o
 .debug_abbrev  0x000000000000079d      0x2e0 obj/Unicast/Debug/network.o
 .debug_abbrev  0x0000000000000a7d      0x11c obj/Unicast/Debug/pcm_handler.o
 .debug_abbrev  0x0000000000000b99       0x39 obj/Unicast/Debug/pinmux.o
 .debug_abbrev  0x0000000000000bd2       0x7d obj/Unicast/Debug/smartconfig.o
 .debug_abbrev  0x0000000000000c4f      0x133 obj/Unicast/Debug/speaker.o
 .debug_abbrev  0x0000000000000d82      0x15d obj/Unicast/Debug/uart_if.o
 .debug_abbrev  0x0000000000000edf       0xfb obj/Unicast/Debug/i2c_if.o
 .debug_abbrev  0x0000000000000fda       0xd9 obj/Unicast/Debug/i2s_if.o
 .debug_abbrev  0x00000000000010b3      0x188 obj/Unicast/Debug/udma_if.o
 .debug_abbrev  0x000000000000123b      0x14b obj/Unicast/Debug/gpio_if.o
 .debug_abbrev  0x0000000000001386      0x135 obj/Unicast/Debug/startup_gcc.o
 .debug_abbrev  0x00000000000014bb      0x296 ../../../simplelink/gcc/lib/os/Debug/libsimplelink.a(device.o)
 .debug_abbrev  0x0000000000001751      0x377 ../../../simplelink/gcc/lib/os/Debug/libsimplelink.a(driver.o)
 .debug_abbrev  0x0000000000001ac8      0x2fd ../../../simplelink/gcc/lib/os/Debug/libsimplelink.a(netapp.o)
 .debug_abbrev  0x0000000000001dc5      0x31a ../../../simplelink/gcc/lib/os/Debug/libsimplelink.a(socket.o)
 .debug_abbrev  0x00000000000020df      0x2ac ../../../simplelink/gcc/lib/os/Debug/libsimplelink.a(wlan.o)
 .debug_abbrev  0x000000000000238b      0x1fb ../../../simplelink/gcc/lib/os/Debug/libsimplelink.a(cc_pal.o)
 .debug_abbrev  0x0000000000002586      0x271 ../../../oslib/gcc/free_rtos/Debug/free_rtos.a(osi_freertos.o)
 .debug_abbrev  0x00000000000027f7      0x299 ../../../oslib/gcc/free_rtos/Debug/free_rtos.a(queue.o)
 .debug_abbrev  0x0000000000002a90      0x2fa ../../../oslib/gcc/free_rtos/Debug/free_rtos.a(tasks.o)
 .debug_abbrev  0x0000000000002d8a      0x1e3 ../../../oslib/gcc/free_rtos/Debug/free_rtos.a(port.o)
 .debug_abbrev  0x0000000000002f6d       0xc7 ../../../oslib/gcc/free_rtos/Debug/free_rtos.a(heap_3.o)
 .debug_abbrev  0x0000000000003034       0xef ../../../oslib/gcc/free_rtos/Debug/free_rtos.a(list.o)
 .debug_abbrev  0x0000000000003123      0x12e ../../../driverlib/gcc/lib/Debug/libdriver.a(gpio.o)
 .debug_abbrev  0x0000000000003251      0x134 ../../../driverlib/gcc/lib/Debug/libdriver.a(i2c.o)
 .debug_abbrev  0x0000000000003385      0x15d ../../../driverlib/gcc/lib/Debug/libdriver.a(interrupt.o)
 .debug_abbrev  0x00000000000034e2      0x119 ../../../driverlib/gcc/lib/Debug/libdriver.a(i2s.o)
 .debug_abbrev  0x00000000000035fb      0x120 ../../../driverlib/gcc/lib/Debug/libdriver.a(pin.o)
 .debug_abbrev  0x000000000000371b      0x206 ../../../driverlib/gcc/lib/Debug/libdriver.a(prcm.o)
 .debug_abbrev  0x0000000000003921      0x161 ../../../driverlib/gcc/lib/Debug/libdriver.a(spi.o)
 .debug_abbrev  0x0000000000003a82       0xec ../../../driverlib/gcc/lib/Debug/libdriver.a(timer.o)
 .debug_abbrev  0x0000000000003b6e      0x145 ../../../driverlib/gcc/lib/Debug/libdriver.a(uart.o)
 .debug_abbrev  0x0000000000003cb3      0x186 ../../../driverlib/gcc/lib/Debug/libdriver.a(udma.o)
 .debug_abbrev  0x0000000000003e39       0x4c ../../../driverlib/gcc/lib/Debug/libdriver.a(utils.o)
 .debug_abbrev  0x0000000000003e85       0xe0 ../../../driverlib/gcc/lib/Debug/libdriver.a(cpu.o)

.debug_aranges  0x0000000000000000     0x1910
 .debug_aranges
                0x0000000000000000       0x68 obj/Unicast/Debug/audiocodec.o
 .debug_aranges
                0x0000000000000068       0x90 obj/Unicast/Debug/circ_buff.o
 .debug_aranges
                0x00000000000000f8       0x68 obj/Unicast/Debug/control.o
 .debug_aranges
                0x0000000000000160       0x50 obj/Unicast/Debug/main.o
 .debug_aranges
                0x00000000000001b0       0x20 obj/Unicast/Debug/microphone.o
 .debug_aranges
                0x00000000000001d0       0x70 obj/Unicast/Debug/network.o
 .debug_aranges
                0x0000000000000240       0x30 obj/Unicast/Debug/pcm_handler.o
 .debug_aranges
                0x0000000000000270       0x20 obj/Unicast/Debug/pinmux.o
 .debug_aranges
                0x0000000000000290       0x28 obj/Unicast/Debug/smartconfig.o
 .debug_aranges
                0x00000000000002b8       0x20 obj/Unicast/Debug/speaker.o
 .debug_aranges
                0x00000000000002d8       0x50 obj/Unicast/Debug/uart_if.o
 .debug_aranges
                0x0000000000000328       0x48 obj/Unicast/Debug/i2c_if.o
 .debug_aranges
                0x0000000000000370       0x48 obj/Unicast/Debug/i2s_if.o
 .debug_aranges
                0x00000000000003b8       0x68 obj/Unicast/Debug/udma_if.o
 .debug_aranges
                0x0000000000000420       0x68 obj/Unicast/Debug/gpio_if.o
 .debug_aranges
                0x0000000000000488       0x48 obj/Unicast/Debug/startup_gcc.o
 .debug_aranges
                0x00000000000004d0       0x70 ../../../simplelink/gcc/lib/os/Debug/libsimplelink.a(device.o)
 .debug_aranges
                0x0000000000000540      0x148 ../../../simplelink/gcc/lib/os/Debug/libsimplelink.a(driver.o)
 .debug_aranges
                0x0000000000000688       0xa8 ../../../simplelink/gcc/lib/os/Debug/libsimplelink.a(netapp.o)
 .debug_aranges
                0x0000000000000730       0xe0 ../../../simplelink/gcc/lib/os/Debug/libsimplelink.a(socket.o)
 .debug_aranges
                0x0000000000000810       0xb0 ../../../simplelink/gcc/lib/os/Debug/libsimplelink.a(wlan.o)
 .debug_aranges
                0x00000000000008c0       0xc0 ../../../simplelink/gcc/lib/os/Debug/libsimplelink.a(cc_pal.o)
 .debug_aranges
                0x0000000000000980      0x128 ../../../oslib/gcc/free_rtos/Debug/free_rtos.a(osi_freertos.o)
 .debug_aranges
                0x0000000000000aa8      0x148 ../../../oslib/gcc/free_rtos/Debug/free_rtos.a(queue.o)
 .debug_aranges
                0x0000000000000bf0      0x1e8 ../../../oslib/gcc/free_rtos/Debug/free_rtos.a(tasks.o)
 .debug_aranges
                0x0000000000000dd8       0x70 ../../../oslib/gcc/free_rtos/Debug/free_rtos.a(port.o)
 .debug_aranges
                0x0000000000000e48       0x28 ../../../oslib/gcc/free_rtos/Debug/free_rtos.a(heap_3.o)
 .debug_aranges
                0x0000000000000e70       0x40 ../../../oslib/gcc/free_rtos/Debug/free_rtos.a(list.o)
 .debug_aranges
                0x0000000000000eb0       0x90 ../../../driverlib/gcc/lib/Debug/libdriver.a(gpio.o)
 .debug_aranges
                0x0000000000000f40      0x1c8 ../../../driverlib/gcc/lib/Debug/libdriver.a(i2c.o)
 .debug_aranges
                0x0000000000001108       0x98 ../../../driverlib/gcc/lib/Debug/libdriver.a(interrupt.o)
 .debug_aranges
                0x00000000000011a0       0xd0 ../../../driverlib/gcc/lib/Debug/libdriver.a(i2s.o)
 .debug_aranges
                0x0000000000001270       0x90 ../../../driverlib/gcc/lib/Debug/libdriver.a(pin.o)
 .debug_aranges
                0x0000000000001300      0x1b8 ../../../driverlib/gcc/lib/Debug/libdriver.a(prcm.o)
 .debug_aranges
                0x00000000000014b8      0x100 ../../../driverlib/gcc/lib/Debug/libdriver.a(spi.o)
 .debug_aranges
                0x00000000000015b8       0xd8 ../../../driverlib/gcc/lib/Debug/libdriver.a(timer.o)
 .debug_aranges
                0x0000000000001690      0x140 ../../../driverlib/gcc/lib/Debug/libdriver.a(uart.o)
 .debug_aranges
                0x00000000000017d0       0xd8 ../../../driverlib/gcc/lib/Debug/libdriver.a(udma.o)
 .debug_aranges
                0x00000000000018a8       0x20 ../../../driverlib/gcc/lib/Debug/libdriver.a(utils.o)
 .debug_aranges
                0x00000000000018c8       0x48 ../../../driverlib/gcc/lib/Debug/libdriver.a(cpu.o)

.debug_ranges   0x0000000000000000     0x16a8
 .debug_ranges  0x0000000000000000       0x58 obj/Unicast/Debug/audiocodec.o
 .debug_ranges  0x0000000000000058       0x80 obj/Unicast/Debug/circ_buff.o
 .debug_ranges  0x00000000000000d8       0x58 obj/Unicast/Debug/control.o
 .debug_ranges  0x0000000000000130       0x40 obj/Unicast/Debug/main.o
 .debug_ranges  0x0000000000000170       0x10 obj/Unicast/Debug/microphone.o
 .debug_ranges  0x0000000000000180       0x60 obj/Unicast/Debug/network.o
 .debug_ranges  0x00000000000001e0       0x20 obj/Unicast/Debug/pcm_handler.o
 .debug_ranges  0x0000000000000200       0x10 obj/Unicast/Debug/pinmux.o
 .debug_ranges  0x0000000000000210       0x18 obj/Unicast/Debug/smartconfig.o
 .debug_ranges  0x0000000000000228       0x10 obj/Unicast/Debug/speaker.o
 .debug_ranges  0x0000000000000238       0x40 obj/Unicast/Debug/uart_if.o
 .debug_ranges  0x0000000000000278       0x38 obj/Unicast/Debug/i2c_if.o
 .debug_ranges  0x00000000000002b0       0x38 obj/Unicast/Debug/i2s_if.o
 .debug_ranges  0x00000000000002e8       0x58 obj/Unicast/Debug/udma_if.o
 .debug_ranges  0x0000000000000340       0x58 obj/Unicast/Debug/gpio_if.o
 .debug_ranges  0x0000000000000398       0x38 obj/Unicast/Debug/startup_gcc.o
 .debug_ranges  0x00000000000003d0       0x60 ../../../simplelink/gcc/lib/os/Debug/libsimplelink.a(device.o)
 .debug_ranges  0x0000000000000430      0x150 ../../../simplelink/gcc/lib/os/Debug/libsimplelink.a(driver.o)
 .debug_ranges  0x0000000000000580       0x98 ../../../simplelink/gcc/lib/os/Debug/libsimplelink.a(netapp.o)
 .debug_ranges  0x0000000000000618       0xd0 ../../../simplelink/gcc/lib/os/Debug/libsimplelink.a(socket.o)
 .debug_ranges  0x00000000000006e8       0xa0 ../../../simplelink/gcc/lib/os/Debug/libsimplelink.a(wlan.o)
 .debug_ranges  0x0000000000000788       0xb0 ../../../simplelink/gcc/lib/os/Debug/libsimplelink.a(cc_pal.o)
 .debug_ranges  0x0000000000000838      0x118 ../../../oslib/gcc/free_rtos/Debug/free_rtos.a(osi_freertos.o)
 .debug_ranges  0x0000000000000950      0x138 ../../../oslib/gcc/free_rtos/Debug/free_rtos.a(queue.o)
 .debug_ranges  0x0000000000000a88      0x1d8 ../../../oslib/gcc/free_rtos/Debug/free_rtos.a(tasks.o)
 .debug_ranges  0x0000000000000c60       0x60 ../../../oslib/gcc/free_rtos/Debug/free_rtos.a(port.o)
 .debug_ranges  0x0000000000000cc0       0x18 ../../../oslib/gcc/free_rtos/Debug/free_rtos.a(heap_3.o)
 .debug_ranges  0x0000000000000cd8       0x30 ../../../oslib/gcc/free_rtos/Debug/free_rtos.a(list.o)
 .debug_ranges  0x0000000000000d08       0x80 ../../../driverlib/gcc/lib/Debug/libdriver.a(gpio.o)
 .debug_ranges  0x0000000000000d88      0x1b8 ../../../driverlib/gcc/lib/Debug/libdriver.a(i2c.o)
 .debug_ranges  0x0000000000000f40       0x88 ../../../driverlib/gcc/lib/Debug/libdriver.a(interrupt.o)
 .debug_ranges  0x0000000000000fc8       0xc0 ../../../driverlib/gcc/lib/Debug/libdriver.a(i2s.o)
 .debug_ranges  0x0000000000001088       0x80 ../../../driverlib/gcc/lib/Debug/libdriver.a(pin.o)
 .debug_ranges  0x0000000000001108      0x1a8 ../../../driverlib/gcc/lib/Debug/libdriver.a(prcm.o)
 .debug_ranges  0x00000000000012b0       0xf0 ../../../driverlib/gcc/lib/Debug/libdriver.a(spi.o)
 .debug_ranges  0x00000000000013a0       0xc8 ../../../driverlib/gcc/lib/Debug/libdriver.a(timer.o)
 .debug_ranges  0x0000000000001468      0x130 ../../../driverlib/gcc/lib/Debug/libdriver.a(uart.o)
 .debug_ranges  0x0000000000001598       0xc8 ../../../driverlib/gcc/lib/Debug/libdriver.a(udma.o)
 .debug_ranges  0x0000000000001660       0x10 ../../../driverlib/gcc/lib/Debug/libdriver.a(utils.o)
 .debug_ranges  0x0000000000001670       0x38 ../../../driverlib/gcc/lib/Debug/libdriver.a(cpu.o)

.debug_line     0x0000000000000000     0xb842
 .debug_line    0x0000000000000000      0x27a obj/Unicast/Debug/audiocodec.o
 .debug_line    0x000000000000027a      0x2f5 obj/Unicast/Debug/circ_buff.o
 .debug_line    0x000000000000056f      0x390 obj/Unicast/Debug/control.o
 .debug_line    0x00000000000008ff      0x221 obj/Unicast/Debug/main.o
 .debug_line    0x0000000000000b20       0xed obj/Unicast/Debug/microphone.o
 .debug_line    0x0000000000000c0d      0x459 obj/Unicast/Debug/network.o
 .debug_line    0x0000000000001066      0x19d obj/Unicast/Debug/pcm_handler.o
 .debug_line    0x0000000000001203       0x53 obj/Unicast/Debug/pinmux.o
 .debug_line    0x0000000000001256       0xab obj/Unicast/Debug/smartconfig.o
 .debug_line    0x0000000000001301       0xf3 obj/Unicast/Debug/speaker.o
 .debug_line    0x00000000000013f4      0x259 obj/Unicast/Debug/uart_if.o
 .debug_line    0x000000000000164d      0x1cd obj/Unicast/Debug/i2c_if.o
 .debug_line    0x000000000000181a      0x112 obj/Unicast/Debug/i2s_if.o
 .debug_line    0x000000000000192c      0x1a6 obj/Unicast/Debug/udma_if.o
 .debug_line    0x0000000000001ad2      0x1d2 obj/Unicast/Debug/gpio_if.o
 .debug_line    0x0000000000001ca4      0x18c obj/Unicast/Debug/startup_gcc.o
 .debug_line    0x0000000000001e30      0x499 ../../../simplelink/gcc/lib/os/Debug/libsimplelink.a(device.o)
 .debug_line    0x00000000000022c9     0x129e ../../../simplelink/gcc/lib/os/Debug/libsimplelink.a(driver.o)
 .debug_line    0x0000000000003567      0x7c9 ../../../simplelink/gcc/lib/os/Debug/libsimplelink.a(netapp.o)
 .debug_line    0x0000000000003d30      0xa44 ../../../simplelink/gcc/lib/os/Debug/libsimplelink.a(socket.o)
 .debug_line    0x0000000000004774      0x8e4 ../../../simplelink/gcc/lib/os/Debug/libsimplelink.a(wlan.o)
 .debug_line    0x0000000000005058      0x561 ../../../simplelink/gcc/lib/os/Debug/libsimplelink.a(cc_pal.o)
 .debug_line    0x00000000000055b9      0x5ed ../../../oslib/gcc/free_rtos/Debug/free_rtos.a(osi_freertos.o)
 .debug_line    0x0000000000005ba6      0xc96 ../../../oslib/gcc/free_rtos/Debug/free_rtos.a(queue.o)
 .debug_line    0x000000000000683c     0x131f ../../../oslib/gcc/free_rtos/Debug/free_rtos.a(tasks.o)
 .debug_line    0x0000000000007b5b      0x2e8 ../../../oslib/gcc/free_rtos/Debug/free_rtos.a(port.o)
 .debug_line    0x0000000000007e43       0xe6 ../../../oslib/gcc/free_rtos/Debug/free_rtos.a(heap_3.o)
 .debug_line    0x0000000000007f29      0x257 ../../../oslib/gcc/free_rtos/Debug/free_rtos.a(list.o)
 .debug_line    0x0000000000008180      0x381 ../../../driverlib/gcc/lib/Debug/libdriver.a(gpio.o)
 .debug_line    0x0000000000008501      0x7ef ../../../driverlib/gcc/lib/Debug/libdriver.a(i2c.o)
 .debug_line    0x0000000000008cf0      0x379 ../../../driverlib/gcc/lib/Debug/libdriver.a(interrupt.o)
 .debug_line    0x0000000000009069      0x490 ../../../driverlib/gcc/lib/Debug/libdriver.a(i2s.o)
 .debug_line    0x00000000000094f9      0x26f ../../../driverlib/gcc/lib/Debug/libdriver.a(pin.o)
 .debug_line    0x0000000000009768      0x940 ../../../driverlib/gcc/lib/Debug/libdriver.a(prcm.o)
 .debug_line    0x000000000000a0a8      0x6de ../../../driverlib/gcc/lib/Debug/libdriver.a(spi.o)
 .debug_line    0x000000000000a786      0x500 ../../../driverlib/gcc/lib/Debug/libdriver.a(timer.o)
 .debug_line    0x000000000000ac86      0x5b3 ../../../driverlib/gcc/lib/Debug/libdriver.a(uart.o)
 .debug_line    0x000000000000b239      0x4fa ../../../driverlib/gcc/lib/Debug/libdriver.a(udma.o)
 .debug_line    0x000000000000b733       0x43 ../../../driverlib/gcc/lib/Debug/libdriver.a(utils.o)
 .debug_line    0x000000000000b776       0xcc ../../../driverlib/gcc/lib/Debug/libdriver.a(cpu.o)

.debug_str      0x0000000000000000     0x8291
 .debug_str     0x0000000000000000      0x295 obj/Unicast/Debug/audiocodec.o
                                        0x2d5 (size before relaxing)
 .debug_str     0x0000000000000295      0x1bb obj/Unicast/Debug/circ_buff.o
                                        0x336 (size before relaxing)
 .debug_str     0x0000000000000450      0x3a3 obj/Unicast/Debug/control.o
                                        0x527 (size before relaxing)
 .debug_str     0x00000000000007f3      0x161 obj/Unicast/Debug/main.o
                                        0x497 (size before relaxing)
 .debug_str     0x0000000000000954       0x65 obj/Unicast/Debug/microphone.o
                                        0x329 (size before relaxing)
 .debug_str     0x00000000000009b9      0xab9 obj/Unicast/Debug/network.o
                                        0xe88 (size before relaxing)
 .debug_str     0x0000000000001472      0x12a obj/Unicast/Debug/pcm_handler.o
                                        0x315 (size before relaxing)
 .debug_str     0x000000000000159c       0x19 obj/Unicast/Debug/pinmux.o
                                        0x11c (size before relaxing)
 .debug_str     0x00000000000015b5       0x2e obj/Unicast/Debug/smartconfig.o
                                        0x1bf (size before relaxing)
 .debug_str     0x00000000000015e3       0x8e obj/Unicast/Debug/speaker.o
                                        0x36d (size before relaxing)
 .debug_str     0x0000000000001671       0xdf obj/Unicast/Debug/uart_if.o
                                        0x26f (size before relaxing)
 .debug_str     0x0000000000001750       0xcd obj/Unicast/Debug/i2c_if.o
                                        0x241 (size before relaxing)
 .debug_str     0x000000000000181d       0xc5 obj/Unicast/Debug/i2s_if.o
                                        0x25b (size before relaxing)
 .debug_str     0x00000000000018e2      0x194 obj/Unicast/Debug/udma_if.o
                                        0x35b (size before relaxing)
 .debug_str     0x0000000000001a76      0x19f obj/Unicast/Debug/gpio_if.o
                                        0x427 (size before relaxing)
 .debug_str     0x0000000000001c15       0xcf obj/Unicast/Debug/startup_gcc.o
                                        0x253 (size before relaxing)
 .debug_str     0x0000000000001ce4      0x8b9 ../../../simplelink/gcc/lib/os/Debug/libsimplelink.a(device.o)
                                        0xe71 (size before relaxing)
 .debug_str     0x000000000000259d      0x8f6 ../../../simplelink/gcc/lib/os/Debug/libsimplelink.a(driver.o)
                                       0x186d (size before relaxing)
 .debug_str     0x0000000000002e93      0x953 ../../../simplelink/gcc/lib/os/Debug/libsimplelink.a(netapp.o)
                                       0x13c9 (size before relaxing)
 .debug_str     0x00000000000037e6      0x596 ../../../simplelink/gcc/lib/os/Debug/libsimplelink.a(socket.o)
                                        0xeff (size before relaxing)
 .debug_str     0x0000000000003d7c      0xd34 ../../../simplelink/gcc/lib/os/Debug/libsimplelink.a(wlan.o)
                                       0x1134 (size before relaxing)
 .debug_str     0x0000000000004ab0      0x2e6 ../../../simplelink/gcc/lib/os/Debug/libsimplelink.a(cc_pal.o)
                                        0x4ec (size before relaxing)
 .debug_str     0x0000000000004d96      0x3ca ../../../oslib/gcc/free_rtos/Debug/free_rtos.a(osi_freertos.o)
                                        0x671 (size before relaxing)
 .debug_str     0x0000000000005160      0x75d ../../../oslib/gcc/free_rtos/Debug/free_rtos.a(queue.o)
                                        0x970 (size before relaxing)
 .debug_str     0x00000000000058bd      0xc44 ../../../oslib/gcc/free_rtos/Debug/free_rtos.a(tasks.o)
                                        0xffa (size before relaxing)
 .debug_str     0x0000000000006501      0x137 ../../../oslib/gcc/free_rtos/Debug/free_rtos.a(port.o)
                                        0x33b (size before relaxing)
 .debug_str     0x0000000000006638       0x68 ../../../oslib/gcc/free_rtos/Debug/free_rtos.a(heap_3.o)
                                        0x1e7 (size before relaxing)
 .debug_str     0x00000000000066a0       0xb6 ../../../oslib/gcc/free_rtos/Debug/free_rtos.a(list.o)
                                        0x2d7 (size before relaxing)
 .debug_str     0x0000000000006756      0x194 ../../../driverlib/gcc/lib/Debug/libdriver.a(gpio.o)
                                        0x274 (size before relaxing)
 .debug_str     0x00000000000068ea      0x4ec ../../../driverlib/gcc/lib/Debug/libdriver.a(i2c.o)
                                        0x68c (size before relaxing)
 .debug_str     0x0000000000006dd6      0x161 ../../../driverlib/gcc/lib/Debug/libdriver.a(interrupt.o)
                                        0x2d5 (size before relaxing)
 .debug_str     0x0000000000006f37      0x20a ../../../driverlib/gcc/lib/Debug/libdriver.a(i2s.o)
                                        0x360 (size before relaxing)
 .debug_str     0x0000000000007141      0x10d ../../../driverlib/gcc/lib/Debug/libdriver.a(pin.o)
                                        0x239 (size before relaxing)
 .debug_str     0x000000000000724e      0x5fe ../../../driverlib/gcc/lib/Debug/libdriver.a(prcm.o)
                                        0x75c (size before relaxing)
 .debug_str     0x000000000000784c      0x2ac ../../../driverlib/gcc/lib/Debug/libdriver.a(spi.o)
                                        0x45a (size before relaxing)
 .debug_str     0x0000000000007af8      0x1b5 ../../../driverlib/gcc/lib/Debug/libdriver.a(timer.o)
                                        0x2ea (size before relaxing)
 .debug_str     0x0000000000007cad      0x2c3 ../../../driverlib/gcc/lib/Debug/libdriver.a(uart.o)
                                        0x462 (size before relaxing)
 .debug_str     0x0000000000007f70      0x2af ../../../driverlib/gcc/lib/Debug/libdriver.a(udma.o)
                                        0x418 (size before relaxing)
 .debug_str     0x000000000000821f       0x16 ../../../driverlib/gcc/lib/Debug/libdriver.a(utils.o)
                                        0x106 (size before relaxing)
 .debug_str     0x0000000000008235       0x5c ../../../driverlib/gcc/lib/Debug/libdriver.a(cpu.o)
                                        0x144 (size before relaxing)

.comment        0x0000000000000000       0x49
 .comment       0x0000000000000000       0x49 obj/Unicast/Debug/audiocodec.o
                                         0x4a (size before relaxing)
 .comment       0x0000000000000049       0x4a obj/Unicast/Debug/circ_buff.o
 .comment       0x0000000000000049       0x4a obj/Unicast/Debug/control.o
 .comment       0x0000000000000049       0x4a obj/Unicast/Debug/main.o
 .comment       0x0000000000000049       0x4a obj/Unicast/Debug/microphone.o
 .comment       0x0000000000000049       0x4a obj/Unicast/Debug/network.o
 .comment       0x0000000000000049       0x4a obj/Unicast/Debug/pcm_handler.o
 .comment       0x0000000000000049       0x4a obj/Unicast/Debug/pinmux.o
 .comment       0x0000000000000049       0x4a obj/Unicast/Debug/smartconfig.o
 .comment       0x0000000000000049       0x4a obj/Unicast/Debug/speaker.o
 .comment       0x0000000000000049       0x4a obj/Unicast/Debug/uart_if.o
 .comment       0x0000000000000049       0x4a obj/Unicast/Debug/i2c_if.o
 .comment       0x0000000000000049       0x4a obj/Unicast/Debug/i2s_if.o
 .comment       0x0000000000000049       0x4a obj/Unicast/Debug/udma_if.o
 .comment       0x0000000000000049       0x4a obj/Unicast/Debug/gpio_if.o
 .comment       0x0000000000000049       0x4a obj/Unicast/Debug/startup_gcc.o
 .comment       0x0000000000000049       0x4a ../../../simplelink/gcc/lib/os/Debug/libsimplelink.a(device.o)
 .comment       0x0000000000000049       0x4a ../../../simplelink/gcc/lib/os/Debug/libsimplelink.a(driver.o)
 .comment       0x0000000000000049       0x4a ../../../simplelink/gcc/lib/os/Debug/libsimplelink.a(netapp.o)
 .comment       0x0000000000000049       0x4a ../../../simplelink/gcc/lib/os/Debug/libsimplelink.a(socket.o)
 .comment       0x0000000000000049       0x4a ../../../simplelink/gcc/lib/os/Debug/libsimplelink.a(wlan.o)
 .comment       0x0000000000000049       0x4a ../../../simplelink/gcc/lib/os/Debug/libsimplelink.a(cc_pal.o)
 .comment       0x0000000000000049       0x4a ../../../oslib/gcc/free_rtos/Debug/free_rtos.a(osi_freertos.o)
 .comment       0x0000000000000049       0x4a ../../../oslib/gcc/free_rtos/Debug/free_rtos.a(queue.o)
 .comment       0x0000000000000049       0x4a ../../../oslib/gcc/free_rtos/Debug/free_rtos.a(tasks.o)
 .comment       0x0000000000000049       0x4a ../../../oslib/gcc/free_rtos/Debug/free_rtos.a(port.o)
 .comment       0x0000000000000049       0x4a ../../../oslib/gcc/free_rtos/Debug/free_rtos.a(heap_3.o)
 .comment       0x0000000000000049       0x4a ../../../oslib/gcc/free_rtos/Debug/free_rtos.a(list.o)
 .comment       0x0000000000000049       0x4a ../../../driverlib/gcc/lib/Debug/libdriver.a(gpio.o)
 .comment       0x0000000000000049       0x4a ../../../driverlib/gcc/lib/Debug/libdriver.a(i2c.o)
 .comment       0x0000000000000049       0x4a ../../../driverlib/gcc/lib/Debug/libdriver.a(interrupt.o)
 .comment       0x0000000000000049       0x4a ../../../driverlib/gcc/lib/Debug/libdriver.a(i2s.o)
 .comment       0x0000000000000049       0x4a ../../../driverlib/gcc/lib/Debug/libdriver.a(pin.o)
 .comment       0x0000000000000049       0x4a ../../../driverlib/gcc/lib/Debug/libdriver.a(prcm.o)
 .comment       0x0000000000000049       0x4a ../../../driverlib/gcc/lib/Debug/libdriver.a(spi.o)
 .comment       0x0000000000000049       0x4a ../../../driverlib/gcc/lib/Debug/libdriver.a(timer.o)
 .comment       0x0000000000000049       0x4a ../../../driverlib/gcc/lib/Debug/libdriver.a(uart.o)
 .comment       0x0000000000000049       0x4a ../../../driverlib/gcc/lib/Debug/libdriver.a(udma.o)
 .comment       0x0000000000000049       0x4a ../../../driverlib/gcc/lib/Debug/libdriver.a(utils.o)
 .comment       0x0000000000000049       0x4a ../../../driverlib/gcc/lib/Debug/libdriver.a(cpu.o)

.ARM.attributes
                0x0000000000000000       0x2c
 .ARM.attributes
                0x0000000000000000       0x2e obj/Unicast/Debug/audiocodec.o
 .ARM.attributes
                0x000000000000002e       0x2e obj/Unicast/Debug/circ_buff.o
 .ARM.attributes
                0x000000000000005c       0x2e obj/Unicast/Debug/control.o
 .ARM.attributes
                0x000000000000008a       0x2e obj/Unicast/Debug/main.o
 .ARM.attributes
                0x00000000000000b8       0x2e obj/Unicast/Debug/microphone.o
 .ARM.attributes
                0x00000000000000e6       0x2e obj/Unicast/Debug/network.o
 .ARM.attributes
                0x0000000000000114       0x2e obj/Unicast/Debug/pcm_handler.o
 .ARM.attributes
                0x0000000000000142       0x2e obj/Unicast/Debug/pinmux.o
 .ARM.attributes
                0x0000000000000170       0x2e obj/Unicast/Debug/smartconfig.o
 .ARM.attributes
                0x000000000000019e       0x2e obj/Unicast/Debug/speaker.o
 .ARM.attributes
                0x00000000000001cc       0x2e obj/Unicast/Debug/uart_if.o
 .ARM.attributes
                0x00000000000001fa       0x2e obj/Unicast/Debug/i2c_if.o
 .ARM.attributes
                0x0000000000000228       0x2e obj/Unicast/Debug/i2s_if.o
 .ARM.attributes
                0x0000000000000256       0x2e obj/Unicast/Debug/udma_if.o
 .ARM.attributes
                0x0000000000000284       0x2e obj/Unicast/Debug/gpio_if.o
 .ARM.attributes
                0x00000000000002b2       0x2e obj/Unicast/Debug/startup_gcc.o
 .ARM.attributes
                0x00000000000002e0       0x2e ../../../simplelink/gcc/lib/os/Debug/libsimplelink.a(device.o)
 .ARM.attributes
                0x000000000000030e       0x2e ../../../simplelink/gcc/lib/os/Debug/libsimplelink.a(driver.o)
 .ARM.attributes
                0x000000000000033c       0x2e ../../../simplelink/gcc/lib/os/Debug/libsimplelink.a(netapp.o)
 .ARM.attributes
                0x000000000000036a       0x2e ../../../simplelink/gcc/lib/os/Debug/libsimplelink.a(socket.o)
 .ARM.attributes
                0x0000000000000398       0x2e ../../../simplelink/gcc/lib/os/Debug/libsimplelink.a(wlan.o)
 .ARM.attributes
                0x00000000000003c6       0x2e ../../../simplelink/gcc/lib/os/Debug/libsimplelink.a(cc_pal.o)
 .ARM.attributes
                0x00000000000003f4       0x2e ../../../oslib/gcc/free_rtos/Debug/free_rtos.a(osi_freertos.o)
 .ARM.attributes
                0x0000000000000422       0x2e ../../../oslib/gcc/free_rtos/Debug/free_rtos.a(queue.o)
 .ARM.attributes
                0x0000000000000450       0x2e ../../../oslib/gcc/free_rtos/Debug/free_rtos.a(tasks.o)
 .ARM.attributes
                0x000000000000047e       0x2e ../../../oslib/gcc/free_rtos/Debug/free_rtos.a(port.o)
 .ARM.attributes
                0x00000000000004ac       0x2e ../../../oslib/gcc/free_rtos/Debug/free_rtos.a(heap_3.o)
 .ARM.attributes
                0x00000000000004da       0x2e ../../../oslib/gcc/free_rtos/Debug/free_rtos.a(list.o)
 .ARM.attributes
                0x0000000000000508       0x2e ../../../driverlib/gcc/lib/Debug/libdriver.a(gpio.o)
 .ARM.attributes
                0x0000000000000536       0x2e ../../../driverlib/gcc/lib/Debug/libdriver.a(i2c.o)
 .ARM.attributes
                0x0000000000000564       0x2e ../../../driverlib/gcc/lib/Debug/libdriver.a(interrupt.o)
 .ARM.attributes
                0x0000000000000592       0x2e ../../../driverlib/gcc/lib/Debug/libdriver.a(i2s.o)
 .ARM.attributes
                0x00000000000005c0       0x2e ../../../driverlib/gcc/lib/Debug/libdriver.a(pin.o)
 .ARM.attributes
                0x00000000000005ee       0x2e ../../../driverlib/gcc/lib/Debug/libdriver.a(prcm.o)
 .ARM.attributes
                0x000000000000061c       0x2e ../../../driverlib/gcc/lib/Debug/libdriver.a(spi.o)
 .ARM.attributes
                0x000000000000064a       0x2e ../../../driverlib/gcc/lib/Debug/libdriver.a(timer.o)
 .ARM.attributes
                0x0000000000000678       0x2e ../../../driverlib/gcc/lib/Debug/libdriver.a(uart.o)
 .ARM.attributes
                0x00000000000006a6       0x2e ../../../driverlib/gcc/lib/Debug/libdriver.a(udma.o)
 .ARM.attributes
                0x00000000000006d4       0x2e ../../../driverlib/gcc/lib/Debug/libdriver.a(utils.o)
 .ARM.attributes
                0x0000000000000702       0x2e ../../../driverlib/gcc/lib/Debug/libdriver.a(cpu.o)
 .ARM.attributes
                0x0000000000000730       0x2e /Applications/ARM/bin/../lib/gcc/arm-none-eabi/10.3.1/../../../../arm-none-eabi/lib/thumb/v7e-m/nofp/libc_nano.a(lib_a-malloc.o)
 .ARM.attributes
                0x000000000000075e       0x2e /Applications/ARM/bin/../lib/gcc/arm-none-eabi/10.3.1/../../../../arm-none-eabi/lib/thumb/v7e-m/nofp/libc_nano.a(lib_a-memcpy-stub.o)
 .ARM.attributes
                0x000000000000078c       0x2e /Applications/ARM/bin/../lib/gcc/arm-none-eabi/10.3.1/../../../../arm-none-eabi/lib/thumb/v7e-m/nofp/libc_nano.a(lib_a-memmove.o)
 .ARM.attributes
                0x00000000000007ba       0x2e /Applications/ARM/bin/../lib/gcc/arm-none-eabi/10.3.1/../../../../arm-none-eabi/lib/thumb/v7e-m/nofp/libc_nano.a(lib_a-memset.o)
 .ARM.attributes
                0x00000000000007e8       0x2e /Applications/ARM/bin/../lib/gcc/arm-none-eabi/10.3.1/../../../../arm-none-eabi/lib/thumb/v7e-m/nofp/libc_nano.a(lib_a-nano-freer.o)
 .ARM.attributes
                0x0000000000000816       0x2e /Applications/ARM/bin/../lib/gcc/arm-none-eabi/10.3.1/../../../../arm-none-eabi/lib/thumb/v7e-m/nofp/libc_nano.a(lib_a-nano-mallocr.o)
 .ARM.attributes
                0x0000000000000844       0x2e /Applications/ARM/bin/../lib/gcc/arm-none-eabi/10.3.1/../../../../arm-none-eabi/lib/thumb/v7e-m/nofp/libc_nano.a(lib_a-realloc.o)
 .ARM.attributes
                0x0000000000000872       0x2e /Applications/ARM/bin/../lib/gcc/arm-none-eabi/10.3.1/../../../../arm-none-eabi/lib/thumb/v7e-m/nofp/libc_nano.a(lib_a-sbrkr.o)
 .ARM.attributes
                0x00000000000008a0       0x2e /Applications/ARM/bin/../lib/gcc/arm-none-eabi/10.3.1/../../../../arm-none-eabi/lib/thumb/v7e-m/nofp/libc_nano.a(lib_a-vsnprintf.o)
 .ARM.attributes
                0x00000000000008ce       0x2e /Applications/ARM/bin/../lib/gcc/arm-none-eabi/10.3.1/../../../../arm-none-eabi/lib/thumb/v7e-m/nofp/libc_nano.a(lib_a-impure.o)
 .ARM.attributes
                0x00000000000008fc       0x2e /Applications/ARM/bin/../lib/gcc/arm-none-eabi/10.3.1/../../../../arm-none-eabi/lib/thumb/v7e-m/nofp/libc_nano.a(lib_a-mlock.o)
 .ARM.attributes
                0x000000000000092a       0x2e /Applications/ARM/bin/../lib/gcc/arm-none-eabi/10.3.1/../../../../arm-none-eabi/lib/thumb/v7e-m/nofp/libc_nano.a(lib_a-nano-reallocr.o)
 .ARM.attributes
                0x0000000000000958       0x2e /Applications/ARM/bin/../lib/gcc/arm-none-eabi/10.3.1/../../../../arm-none-eabi/lib/thumb/v7e-m/nofp/libc_nano.a(lib_a-nano-svfprintf.o)
 .ARM.attributes
                0x0000000000000986       0x2e /Applications/ARM/bin/../lib/gcc/arm-none-eabi/10.3.1/../../../../arm-none-eabi/lib/thumb/v7e-m/nofp/libc_nano.a(lib_a-nano-vfprintf_i.o)
 .ARM.attributes
                0x00000000000009b4       0x2e /Applications/ARM/bin/../lib/gcc/arm-none-eabi/10.3.1/../../../../arm-none-eabi/lib/thumb/v7e-m/nofp/libc_nano.a(lib_a-reent.o)
 .ARM.attributes
                0x00000000000009e2       0x2e /Applications/ARM/bin/../lib/gcc/arm-none-eabi/10.3.1/../../../../arm-none-eabi/lib/thumb/v7e-m/nofp/libc_nano.a(lib_a-lock.o)
 .ARM.attributes
                0x0000000000000a10       0x1c /Applications/ARM/bin/../lib/gcc/arm-none-eabi/10.3.1/../../../../arm-none-eabi/lib/thumb/v7e-m/nofp/libc_nano.a(lib_a-memchr.o)
 .ARM.attributes
                0x0000000000000a2c       0x2e /Applications/ARM/bin/../lib/gcc/arm-none-eabi/10.3.1/../../../../arm-none-eabi/lib/thumb/v7e-m/nofp/libc_nano.a(lib_a-nano-msizer.o)
 .ARM.attributes
                0x0000000000000a5a       0x1e /Applications/ARM/bin/../lib/gcc/arm-none-eabi/10.3.1/thumb/v7e-m/nofp/libgcc.a(_aeabi_uldivmod.o)
 .ARM.attributes
                0x0000000000000a78       0x2e /Applications/ARM/bin/../lib/gcc/arm-none-eabi/10.3.1/thumb/v7e-m/nofp/libgcc.a(_udivmoddi4.o)
 .ARM.attributes
                0x0000000000000aa6       0x1e /Applications/ARM/bin/../lib/gcc/arm-none-eabi/10.3.1/thumb/v7e-m/nofp/libgcc.a(_dvmd_tls.o)

.debug_frame    0x0000000000000000     0x6954
 .debug_frame   0x0000000000000000      0x180 obj/Unicast/Debug/audiocodec.o
 .debug_frame   0x0000000000000180      0x244 obj/Unicast/Debug/circ_buff.o
 .debug_frame   0x00000000000003c4      0x17c obj/Unicast/Debug/control.o
 .debug_frame   0x0000000000000540       0xe4 obj/Unicast/Debug/main.o
 .debug_frame   0x0000000000000624       0x30 obj/Unicast/Debug/microphone.o
 .debug_frame   0x0000000000000654      0x1a8 obj/Unicast/Debug/network.o
 .debug_frame   0x00000000000007fc       0x80 obj/Unicast/Debug/pcm_handler.o
 .debug_frame   0x000000000000087c       0x2c obj/Unicast/Debug/pinmux.o
 .debug_frame   0x00000000000008a8       0x5c obj/Unicast/Debug/smartconfig.o
 .debug_frame   0x0000000000000904       0x30 obj/Unicast/Debug/speaker.o
 .debug_frame   0x0000000000000934      0x12c obj/Unicast/Debug/uart_if.o
 .debug_frame   0x0000000000000a60       0xe0 obj/Unicast/Debug/i2c_if.o
 .debug_frame   0x0000000000000b40       0xdc obj/Unicast/Debug/i2s_if.o
 .debug_frame   0x0000000000000c1c      0x168 obj/Unicast/Debug/udma_if.o
 .debug_frame   0x0000000000000d84      0x180 obj/Unicast/Debug/gpio_if.o
 .debug_frame   0x0000000000000f04       0xbc obj/Unicast/Debug/startup_gcc.o
 .debug_frame   0x0000000000000fc0      0x1a8 ../../../simplelink/gcc/lib/os/Debug/libsimplelink.a(device.o)
 .debug_frame   0x0000000000001168      0x57c ../../../simplelink/gcc/lib/os/Debug/libsimplelink.a(driver.o)
 .debug_frame   0x00000000000016e4      0x2a4 ../../../simplelink/gcc/lib/os/Debug/libsimplelink.a(netapp.o)
 .debug_frame   0x0000000000001988      0x3b0 ../../../simplelink/gcc/lib/os/Debug/libsimplelink.a(socket.o)
 .debug_frame   0x0000000000001d38      0x2a8 ../../../simplelink/gcc/lib/os/Debug/libsimplelink.a(wlan.o)
 .debug_frame   0x0000000000001fe0      0x2d0 ../../../simplelink/gcc/lib/os/Debug/libsimplelink.a(cc_pal.o)
 .debug_frame   0x00000000000022b0      0x4ac ../../../oslib/gcc/free_rtos/Debug/free_rtos.a(osi_freertos.o)
 .debug_frame   0x000000000000275c      0x590 ../../../oslib/gcc/free_rtos/Debug/free_rtos.a(queue.o)
 .debug_frame   0x0000000000002cec      0x854 ../../../oslib/gcc/free_rtos/Debug/free_rtos.a(tasks.o)
 .debug_frame   0x0000000000003540      0x160 ../../../oslib/gcc/free_rtos/Debug/free_rtos.a(port.o)
 .debug_frame   0x00000000000036a0       0x58 ../../../oslib/gcc/free_rtos/Debug/free_rtos.a(heap_3.o)
 .debug_frame   0x00000000000036f8       0xd8 ../../../oslib/gcc/free_rtos/Debug/free_rtos.a(list.o)
 .debug_frame   0x00000000000037d0      0x260 ../../../driverlib/gcc/lib/Debug/libdriver.a(gpio.o)
 .debug_frame   0x0000000000003a30      0x870 ../../../driverlib/gcc/lib/Debug/libdriver.a(i2c.o)
 .debug_frame   0x00000000000042a0      0x258 ../../../driverlib/gcc/lib/Debug/libdriver.a(interrupt.o)
 .debug_frame   0x00000000000044f8      0x39c ../../../driverlib/gcc/lib/Debug/libdriver.a(i2s.o)
 .debug_frame   0x0000000000004894      0x244 ../../../driverlib/gcc/lib/Debug/libdriver.a(pin.o)
 .debug_frame   0x0000000000004ad8      0x7a4 ../../../driverlib/gcc/lib/Debug/libdriver.a(prcm.o)
 .debug_frame   0x000000000000527c      0x480 ../../../driverlib/gcc/lib/Debug/libdriver.a(spi.o)
 .debug_frame   0x00000000000056fc      0x3c8 ../../../driverlib/gcc/lib/Debug/libdriver.a(timer.o)
 .debug_frame   0x0000000000005ac4      0x5cc ../../../driverlib/gcc/lib/Debug/libdriver.a(uart.o)
 .debug_frame   0x0000000000006090      0x390 ../../../driverlib/gcc/lib/Debug/libdriver.a(udma.o)
 .debug_frame   0x0000000000006420       0x20 ../../../driverlib/gcc/lib/Debug/libdriver.a(utils.o)
 .debug_frame   0x0000000000006440       0x70 ../../../driverlib/gcc/lib/Debug/libdriver.a(cpu.o)
 .debug_frame   0x00000000000064b0       0x30 /Applications/ARM/bin/../lib/gcc/arm-none-eabi/10.3.1/../../../../arm-none-eabi/lib/thumb/v7e-m/nofp/libc_nano.a(lib_a-malloc.o)
 .debug_frame   0x00000000000064e0       0x28 /Applications/ARM/bin/../lib/gcc/arm-none-eabi/10.3.1/../../../../arm-none-eabi/lib/thumb/v7e-m/nofp/libc_nano.a(lib_a-memcpy-stub.o)
 .debug_frame   0x0000000000006508       0x28 /Applications/ARM/bin/../lib/gcc/arm-none-eabi/10.3.1/../../../../arm-none-eabi/lib/thumb/v7e-m/nofp/libc_nano.a(lib_a-memmove.o)
 .debug_frame   0x0000000000006530       0x20 /Applications/ARM/bin/../lib/gcc/arm-none-eabi/10.3.1/../../../../arm-none-eabi/lib/thumb/v7e-m/nofp/libc_nano.a(lib_a-memset.o)
 .debug_frame   0x0000000000006550       0x38 /Applications/ARM/bin/../lib/gcc/arm-none-eabi/10.3.1/../../../../arm-none-eabi/lib/thumb/v7e-m/nofp/libc_nano.a(lib_a-nano-freer.o)
 .debug_frame   0x0000000000006588       0x4c /Applications/ARM/bin/../lib/gcc/arm-none-eabi/10.3.1/../../../../arm-none-eabi/lib/thumb/v7e-m/nofp/libc_nano.a(lib_a-nano-mallocr.o)
 .debug_frame   0x00000000000065d4       0x20 /Applications/ARM/bin/../lib/gcc/arm-none-eabi/10.3.1/../../../../arm-none-eabi/lib/thumb/v7e-m/nofp/libc_nano.a(lib_a-realloc.o)
 .debug_frame   0x00000000000065f4       0x2c /Applications/ARM/bin/../lib/gcc/arm-none-eabi/10.3.1/../../../../arm-none-eabi/lib/thumb/v7e-m/nofp/libc_nano.a(lib_a-sbrkr.o)
 .debug_frame   0x0000000000006620       0x4c /Applications/ARM/bin/../lib/gcc/arm-none-eabi/10.3.1/../../../../arm-none-eabi/lib/thumb/v7e-m/nofp/libc_nano.a(lib_a-vsnprintf.o)
 .debug_frame   0x000000000000666c       0x30 /Applications/ARM/bin/../lib/gcc/arm-none-eabi/10.3.1/../../../../arm-none-eabi/lib/thumb/v7e-m/nofp/libc_nano.a(lib_a-mlock.o)
 .debug_frame   0x000000000000669c       0x3c /Applications/ARM/bin/../lib/gcc/arm-none-eabi/10.3.1/../../../../arm-none-eabi/lib/thumb/v7e-m/nofp/libc_nano.a(lib_a-nano-reallocr.o)
 .debug_frame   0x00000000000066d8       0x90 /Applications/ARM/bin/../lib/gcc/arm-none-eabi/10.3.1/../../../../arm-none-eabi/lib/thumb/v7e-m/nofp/libc_nano.a(lib_a-nano-svfprintf.o)
 .debug_frame   0x0000000000006768       0x60 /Applications/ARM/bin/../lib/gcc/arm-none-eabi/10.3.1/../../../../arm-none-eabi/lib/thumb/v7e-m/nofp/libc_nano.a(lib_a-nano-vfprintf_i.o)
 .debug_frame   0x00000000000067c8       0x5c /Applications/ARM/bin/../lib/gcc/arm-none-eabi/10.3.1/../../../../arm-none-eabi/lib/thumb/v7e-m/nofp/libc_nano.a(lib_a-reent.o)
 .debug_frame   0x0000000000006824       0xb0 /Applications/ARM/bin/../lib/gcc/arm-none-eabi/10.3.1/../../../../arm-none-eabi/lib/thumb/v7e-m/nofp/libc_nano.a(lib_a-lock.o)
 .debug_frame   0x00000000000068d4       0x20 /Applications/ARM/bin/../lib/gcc/arm-none-eabi/10.3.1/../../../../arm-none-eabi/lib/thumb/v7e-m/nofp/libc_nano.a(lib_a-nano-msizer.o)
 .debug_frame   0x00000000000068f4       0x2c /Applications/ARM/bin/../lib/gcc/arm-none-eabi/10.3.1/thumb/v7e-m/nofp/libgcc.a(_aeabi_uldivmod.o)
 .debug_frame   0x0000000000006920       0x34 /Applications/ARM/bin/../lib/gcc/arm-none-eabi/10.3.1/thumb/v7e-m/nofp/libgcc.a(_udivmoddi4.o)
